******************************************************************************
               TMS320C6x Linker Unix v7.3.3                    
******************************************************************************
>> Linked Tue May 12 19:42:35 2020

OUTPUT FILE NAME:   <dsp.xe674>
ENTRY POINT SYMBOL: "ti_sysbios_family_c64p_Hwi0"  address: c3065c00


MEMORY CONFIGURATION

         name            origin    length      used     unused   attr    fill
----------------------  --------  ---------  --------  --------  ----  --------
  IROM                  11700000   00100000  0001fce7  000e0319  R  X
  IRAM                  11800000   00038000  00000000  00038000  RW X
  L3_CBA_RAM            80000000   00020000  00000000  00020000  RW X
  SR_0                  c2000000   00010000  00010000  00000000  RW X
  SR_1                  c2010000   00ff0000  00ff0000  00000000  RW X
  DSP_PROG              c3000000   01000000  00065ee0  00f9a120  RW X


SEGMENT ALLOCATION MAP

run origin  load origin   length   init length attrs members
----------  ----------- ---------- ----------- ----- -------
11700000    11700000    00006ebc   00000000    rw-
  11700000    11700000    00006ebc   00000000    rw- scadaDATA
11706ec0    11706ec0    00006400   00006400    rw-
  11706ec0    11706ec0    00006400   00006400    rw- .ADBUFDATA
1170d2c0    1170d2c0    00003320   00003320    r-x
  1170d2c0    1170d2c0    00003320   00003320    r-x FaInDDR2_CODE
117105e0    117105e0    00002d78   00000000    rw-
  117105e0    117105e0    00002d78   00000000    rw- localprotectData
11713360    11713360    00002d00   00002d00    r-x
  11713360    11713360    00002d00   00002d00    r-x localprotectInDDR2
11716060    11716060    00002000   00000000    rw-
  11716060    11716060    00002000   00000000    rw- DataInDDR2
11718060    11718060    00003040   00003040    r-x
  11718060    11718060    000018c0   000018c0    r-x codenmifxn
  11719920    11719920    00001780   00001780    r-x YXCODEINDDR2
1171b0a0    1171b0a0    00001404   00001404    rw-
  1171b0a0    1171b0a0    00001404   00001404    rw- .ADBUDATA
1171c4a8    1171c4a8    0000140e   00001400    rw-
  1171c4a8    1171c4a8    00001400   00001400    rw- .FFTOUTDATA
  1171d8a8    1171d8a8    0000000e   00000000    rw- .FpgaHostData
1171d8c0    1171d8c0    00000be0   00000be0    r-x
  1171d8c0    1171d8c0    00000be0   00000be0    r-x scadainit_code
1171e4a0    1171e4a0    00000e48   00000000    rw-
  1171e4a0    1171e4a0    00000a48   00000000    rw- faDATA
  1171eee8    1171eee8    00000400   00000000    rw- .ptr_wDATA
1171f300    1171f300    000005a0   000005a0    r-x
  1171f300    1171f300    00000400   00000400    r-x codeFFT
  1171f700    1171f700    000001a0   000001a0    r-x codeGPIO_setOutput
1171f8a0    1171f8a0    00000240   00000140    rw-
  1171f8a0    1171f8a0    00000140   00000140    rw- .LINEVOLDATA
  1171f9e0    1171f9e0    00000100   00000000    rw- .FpgaSlaveData
1171fae0    1171fae0    00000120   00000120    r-x
  1171fae0    1171fae0    00000120   00000120    r-x codeHwiDynamic
1171fc00    1171fc00    000000a0   00000000    rw-
  1171fc00    1171fc00    000000a0   00000000    rw- JB_RMSDATA
1171fca0    1171fca0    00000079   00000040    rw-
  1171fca0    1171fca0    00000040   00000040    rw- brevDATA
  1171fce0    1171fce0    00000039   00000000    rw- .yc_configureDATA
c3000000    c3000000    00036ac0   00036ac0    rwx
  c3000000    c3000000    00036ac0   00036ac0    rwx .text.1
c3036ab8    c3036ab8    00000008   00000008    rw-
  c3036ab8    c3036ab8    00000008   00000008    rw- .fardata.1
c3036ac0    c3036ac0    00002f60   00002f60    r-x
  c3036ac0    c3036ac0    00002f60   00002f60    r-x .text.2
c3039a10    c3039a10    0001f99e   00000000    rw-
  c3039a10    c3039a10    0001f99e   00000000    rw- .far
c30593b0    c30593b0    00006bb4   00006bb4    rw-
  c30593b0    c30593b0    00006bb4   00006bb4    rw- .fardata.2
c305ff68    c305ff68    000048ca   000048ca    r--
  c305ff68    c305ff68    000048ca   000048ca    r-- .const
c3064838    c3064838    00001000   00000000    rw-
  c3064838    c3064838    00001000   00000000    rw- .stack
c3065838    c3065838    000001b4   000001b4    r--
  c3065838    c3065838    000001b4   000001b4    r-- .switch
c30659ec    c30659ec    00000120   00000000    rw-
  c30659ec    c30659ec    00000120   00000000    rw- .cio
c3065b10    c3065b10    00000068   00000000    rw-
  c3065b10    c3065b10    00000068   00000000    rw- .bss
c3065b78    c3065b78    0000003a   0000003a    rw-
  c3065b78    c3065b78    0000003a   0000003a    rw- .neardata
c3065bb4    c3065bb4    00000008   00000008    r--
  c3065bb4    c3065bb4    00000008   00000008    r-- .rodata
c3065bc0    c3065bc0    00000038   00000038    rw-
  c3065bc0    c3065bc0    00000038   00000038    rw- .data.1
c3065c00    c3065c00    00000200   00000200    r-x
  c3065c00    c3065c00    00000200   00000200    r-x .vecs
c3065e00    c3065e00    00000088   00000088    rw-
  c3065e00    c3065e00    00000024   00000024    rw- .data.2
  c3065e24    c3065e24    00000064   00000064    rw- .args
c3065e88    c3065e88    00000028   00000028    r--
  c3065e88    c3065e88    00000028   00000028    r-- .init_array
c3066000    c3066000    0000004c   0000004c    r--
  c3066000    c3066000    0000004c   0000004c    r-- ti_sdo_ipc_init


SECTION ALLOCATION MAP

 output                                  attributes/
section   page    origin      length       input sections
--------  ----  ----------  ----------   ----------------
.cinit     0    c3000000    00000000     UNINITIALIZED

scadaDATA 
*          0    11700000    00006ebc     UNINITIALIZED
                  11700000    00006ebc     scada.oe674 (scadaDATA)

.ADBUFDATA 
*          0    11706ec0    00006400     
                  11706ec0    00006400     adsamp.oe674 (.ADBUFDATA)

FaInDDR2_CODE 
*          0    1170d2c0    00003320     
                  1170d2c0    000032c0     fa.oe674 (FaInDDR2_CODE)
                  11710580    00000010     fa.oe674 ($Tramp$S$$_ZN2FA14FixTimeProtectEv)
                  11710590    00000010     sinsp.oe674 ($Tramp$S$$sinsp)
                  117105a0    00000010     cossp.oe674 ($Tramp$S$$cossp)
                  117105b0    00000010     rts6740_elf.lib : strasg.obj ($Tramp$S$$__c6xabi_strasgi_64plus)
                  117105c0    00000010     data.oe674 ($Tramp$S$$_ZN8UserData7GetDataElP4DataI12BaseDataTypeE)
                  117105d0    00000010     --HOLE-- [fill = 0]

localprotectData 
*          0    117105e0    00002d78     UNINITIALIZED
                  117105e0    00002d78     localprotect.oe674 (localprotectData)

localprotectInDDR2 
*          0    11713360    00002d00     
                  11713360    00002b60     localprotect.oe674 (localprotectInDDR2)
                  11715ec0    00000010     data.oe674 ($Tramp$S$$_ZN8UserData7GetDataElP4DataI12BaseDataTypeE)
                  11715ed0    00000010     localprotect.oe674 ($Tramp$S$$_ZN12LocalProtect7ParacpyEv)
                  11715ee0    00000010     localprotect.oe674 ($Tramp$S$$_ZN7NewToolI8BaseToolE6ConfigE8NODEDATA)
                  11715ef0    00000010     rts6740_elf.lib : printf.obj ($Tramp$S$$printf)
                  11715f00    00000010     localprotect.oe674 ($Tramp$S$$_ZN14ConterSleepTAB6GetLabEv)
                  11715f10    00000010     localprotect.oe674 ($Tramp$S$$_ZN15ConterRuningTAB6GetLabEv)
                  11715f20    00000010     localprotect.oe674 ($Tramp$S$$_ZN16ConterReachedTAB6GetLabEv)
                  11715f30    00000010     localprotect.oe674 ($Tramp$S$$_ZN13StopConterTAB6GetLabEv)
                  11715f40    00000010     localprotect.oe674 ($Tramp$S$$_ZN14StartConterTAB6GetLabEv)
                  11715f50    00000010     localprotect.oe674 ($Tramp$S$$_ZN18DelayStartDelayTAB6GetLabEv)
                  11715f60    00000010     localprotect.oe674 ($Tramp$S$$_ZN8PulseTAB6GetLabEv)
                  11715f70    00000010     localprotect.oe674 ($Tramp$S$$_ZN13DelayStartTAB6GetLabEv)
                  11715f80    00000010     localprotect.oe674 ($Tramp$S$$_ZN15ANALOGSTEADYTAB6GetLabEv)
                  11715f90    00000010     localprotect.oe674 ($Tramp$S$$_ZN10COMPARETAB6GetLabEv)
                  11715fa0    00000010     localprotect.oe674 ($Tramp$S$$_ZN12LOWANALOGTAB6GetLabEv)
                  11715fb0    00000010     localprotect.oe674 ($Tramp$S$$_ZN13HIGHANALOGTAB6GetLabEv)
                  11715fc0    00000010     localprotect.oe674 ($Tramp$S$$_ZN9STEADYTAB6GetLabEv)
                  11715fd0    00000010     localprotect.oe674 ($Tramp$S$$_ZN7XNORTAB6GetLabEv)
                  11715fe0    00000010     localprotect.oe674 ($Tramp$S$$_ZN6XORTAB6GetLabEv)
                  11715ff0    00000010     localprotect.oe674 ($Tramp$S$$_ZN5ORTAB6GetLabEv)
                  11716000    00000010     localprotect.oe674 ($Tramp$S$$_ZN7NANDTAB6GetLabEv)
                  11716010    00000010     localprotect.oe674 ($Tramp$S$$_ZN6ANDTAB6GetLabEv)
                  11716020    00000010     localprotect.oe674 ($Tramp$S$$_ZN6NOTTAB6GetLabEv)
                  11716030    00000010     localprotect.oe674 ($Tramp$S$$_ZN8EQUALTAB6GetLabEv)
                  11716040    00000010     rts6740_elf.lib : memset.obj ($Tramp$S$$memset)
                  11716050    00000010     --HOLE-- [fill = 0]

DataInDDR2 
*          0    11716060    00002000     UNINITIALIZED
                  11716060    00002000     scada.oe674 (DataInDDR2)

codenmifxn 
*          0    11718060    000018c0     
                  11718060    00001880     adsamp.oe674 (codenmifxn)
                  117198e0    00000010     sysbios.lib : BIOS.obj ($Tramp$S$$ti_sysbios_knl_Swi_post__E)
                  117198f0    00000010     yx.oe674 ($Tramp$S$$_Z5GetYxv)
                  11719900    00000010     rts6740_elf.lib : remu.obj ($Tramp$S$$__c6xabi_remu)
                  11719910    00000010     --HOLE-- [fill = 0]

YXCODEINDDR2 
*          0    11719920    00001780     
                  11719920    000016a0     yx.oe674 (YXCODEINDDR2)
                  1171afc0    00000010     rts6740_elf.lib : memset.obj ($Tramp$S$$memset)
                  1171afd0    00000010     yx.oe674 ($Tramp$S$$_Z14ReadYxFromFpgav)
                  1171afe0    00000010     clock.oe674 ($Tramp$S$$_ZN5Clock12StartMsClockEP9setmstimey)
                  1171aff0    00000010     clock.oe674 ($Tramp$S$$_ZN5Clock13GetCP56Time2aEv)
                  1171b000    00000010     yx.oe674 ($Tramp$S$$_Z14YxNatureChangeai)
                  1171b010    00000010     clock.oe674 ($Tramp$S$$_ZN5Clock12CheckMsClockEP9setmstime)
                  1171b020    00000010     clock.oe674 ($Tramp$S$$_ZN5Clock11StopMsClockEP9setmstime)
                  1171b030    00000010     data.oe674 ($Tramp$S$$_ZN8UserData7SetDataElP4DataI12BaseDataTypeE)
                  1171b040    00000010     message.oe674 ($Tramp$S$$_ZN7Message7SendMsgEmllP12BaseDataTypeP9time_data)
                  1171b050    00000010     scada.oe674 ($Tramp$S$$_ZN9DataType1C1Ev)
                  1171b060    00000010     rts6740_elf.lib : strasg.obj ($Tramp$S$$__c6xabi_strasgi_64plus)
                  1171b070    00000010     data.oe674 ($Tramp$S$$_ZN8UserData7GetDataElP4DataI12BaseDataTypeE)
                  1171b080    00000010     scada.oe674 ($Tramp$S$$_ZN9DataType4C1Ev)
                  1171b090    00000010     --HOLE-- [fill = 0]

.ADBUDATA 
*          0    1171b0a0    00001404     
                  1171b0a0    00001404     adsamp.oe674 (.ADBUDATA)

.FFTOUTDATA 
*          0    1171c4a8    00001400     
                  1171c4a8    00001400     adsamp.oe674 (.FFTOUTDATA)

.FpgaHostData 
*          0    1171d8a8    0000000e     UNINITIALIZED
                  1171d8a8    0000000e     fpag.oe674 (.FpgaHostData)

scadainit_code 
*          0    1171d8c0    00000be0     
                  1171d8c0    00000b40     scada.oe674 (scadainit_code)
                  1171e400    00000010     fpag.oe674 ($Tramp$S$$_Z12FpgaReadDatahPtt)
                  1171e410    00000010     scada.oe674 ($Tramp$S$$_Z11YcRatioInith)
                  1171e420    00000010     scada.oe674 ($Tramp$S$$_Z13adcompass_intv)
                  1171e430    00000010     scada.oe674 ($Tramp$S$$_Z11YcStandInitv)
                  1171e440    00000010     rts6740_elf.lib : strasg.obj ($Tramp$S$$__c6xabi_strasgi_64plus)
                  1171e450    00000010     data.oe674 ($Tramp$S$$_ZN8UserData7GetDataElP4DataI12BaseDataTypeE)
                  1171e460    00000010     rts6740_elf.lib : strcpy.obj ($Tramp$S$$strcpy)
                  1171e470    00000010     scada.oe674 ($Tramp$S$$_ZN10_ScadaParaC1Ev)
                  1171e480    00000010     message.oe674 ($Tramp$S$$_ZN7BaseAppC2Ev)
                  1171e490    00000010     --HOLE-- [fill = 0]

faDATA     0    1171e4a0    00000a48     UNINITIALIZED
                  1171e4a0    00000a48     fa.oe674 (faDATA)

.ptr_wDATA 
*          0    1171eee8    00000400     UNINITIALIZED
                  1171eee8    00000400     adsamp.oe674 (.ptr_wDATA)

codeFFT    0    1171f300    00000400     
                  1171f300    000003c0     fft.oe674 (codeFFT)
                  1171f6c0    00000010     fa.oe674 ($Tramp$S$$_ZN2FA14FixTimeProtectEv)
                  1171f6d0    00000010     sqrtsp.oe674 ($Tramp$S$$sqrtsp)
                  1171f6e0    00000010     DSPF_sp_fftSPxSP.oe674 ($Tramp$S$$DSPF_sp_fftSPxSP)
                  1171f6f0    00000010     --HOLE-- [fill = 0]

codeGPIO_setOutput 
*          0    1171f700    000001a0     
                  1171f700    000001a0     gpio.oe674 (codeGPIO_setOutput)

.LINEVOLDATA 
*          0    1171f8a0    00000140     
                  1171f8a0    00000140     adsamp.oe674 (.LINEVOLDATA)

.FpgaSlaveData 
*          0    1171f9e0    00000100     UNINITIALIZED
                  1171f9e0    00000100     fpag.oe674 (.FpgaSlaveData)

codeHwiDynamic 
*          0    1171fae0    00000120     
                  1171fae0    00000100     interruptapp.oe674 (codeHwiDynamic)
                  1171fbe0    00000010     adsamp.oe674 ($Tramp$S$$_Z6ManSetv)
                  1171fbf0    00000010     clock.oe674 ($Tramp$S$$_ZN5Clock4tickEv)

JB_RMSDATA 
*          0    1171fc00    000000a0     UNINITIALIZED
                  1171fc00    000000a0     fft.oe674 (JB_RMSDATA)

brevDATA   0    1171fca0    00000040     
                  1171fca0    00000040     fft.oe674 (brevDATA)

.yc_configureDATA 
*          0    1171fce0    00000039     UNINITIALIZED
                  1171fce0    00000039     adsamp.oe674 (.yc_configureDATA)

ti.sdo.ipc.SharedRegion_0 
*          0    c2000000    00010000     NOLOAD SECTION
                  c2000000    00010000     --HOLE--

ti.sdo.ipc.SharedRegion_1 
*          0    c2010000    00ff0000     NOLOAD SECTION
                  c2010000    00ff0000     --HOLE--

xdc.meta   0    c3000000    000000f0     COPY SECTION
                  c3000000    000000f0     Dsp_pe674.oe674 (xdc.meta)

.text.1    0    c3000000    00036ac0     
                  c3000000    00003ae0     scada.oe674 (.text)
                  c3003ae0    00003640     data.oe674 (.text:_ZN2daC1Ev)
                  c3007120    000023c0     scada.oe674 (.text:_ZN8scada_ycC1Ev)
                  c30094e0    00001700     syslink.oe674 (.text)
                  c300abe0    00001600     data.oe674 (.text)
                  c300c1e0    00001200     clock.oe674 (.text)
                  c300d3e0    00000f80     adsamp.oe674 (.text)
                  c300e360    00000f20     yk.oe674 (.text)
                  c300f280    00000c20     fpag.oe674 (.text)
                  c300fea0    00000b80     ipc.lib : Ipc.obj (.text:ti_sdo_ipc_GateMP_Instance_init__F)
                  c3010a20    000009a0     ti.targets.rts6000.ae674 : System.oe674 (.text:xdc_runtime_System_doPrint__I)
                  c30113c0    00000840     localprotect.oe674 (.text)
                  c3011c00    00000820     yx.oe674 (.text)
                  c3012420    00000800     fa.oe674 (.text)
                  c3012c20    000007a0     omapl138.oe674 (.text)
                  c30133c0    00000780     task.oe674 (.text)
                  c3013b40    00000780     sysbios.lib : BIOS.obj (.text:ti_sysbios_family_c64p_Exception_handler__I)
                  c30142c0    00000760     ipc.lib : Ipc.obj (.text:Ipc_detach)
                  c3014a20    00000740             : Ipc.obj (.text:Ipc_attach)
                  c3015160    00000700     message.oe674 (.text)
                  c3015860    00000700     ipc.lib : Ipc.obj (.text:ti_sdo_ipc_transports_TransportShm_Instance_init__F)
                  c3015f60    00000700     varm.oe674 (.text)
                  c3016660    000005e0     sysbios.lib : BIOS.obj (.text:ti_sysbios_timers_timer64_Timer_Instance_init__F)
                  c3016c40    000005c0     rts6740_elf.lib : _printfi.obj (.text:_getarg_diouxp)
                  c3017200    000005a0                     : divd.obj (.text:__c6xabi_divd)
                  c30177a0    00000480                     : _printfi.obj (.text:_setfield)
                  c3017c20    00000460                     : _printfi.obj (.text:_printfi)
                  c3018080    00000460     ipc.lib : Ipc.obj (.text:ti_sdo_ipc_GateMP_setRegion0Reserved__F)
                  c30184e0    00000460             : Ipc.obj (.text:ti_sdo_ipc_heaps_HeapMemMP_Instance_init__F)
                  c3018940    00000460             : Ipc.obj (.text:ti_sdo_ipc_nsremote_NameServerRemoteNotify_get__F)
                  c3018da0    00000440             : Ipc.obj (.text:ti_sdo_ipc_ListMP_Instance_init__F)
                  c30191e0    00000400     stack.oe674 (.text)
                  c30195e0    000003e0     ipc.lib : Ipc.obj (.text:ti_sdo_ipc_GateMP_Instance_finalize__F)
                  c30199c0    000003c0             : Ipc.obj (.text:ti_sdo_ipc_heaps_HeapMemMP_alloc__E)
                  c3019d80    000003a0     DSPF_sp_fftSPxSP.oe674 (.text:DSPF_sp_fftSPxSP)
                  c301a120    000003a0     ipc.lib : Ipc.obj (.text:NameServer_add)
                  c301a4c0    00000380     fa.oe674 (.text:_ZN6ChzOut3FunEythh)
                  c301a840    00000380     ipc.lib : Ipc.obj (.text:ti_sdo_ipc_heaps_HeapMemMP_free__E)
                  c301abc0    00000380     ti.targets.rts6000.ae674 : Diags.oe674 (.text:xdc_runtime_Diags_setMask__F)
                  c301af40    00000360     interruptapp.oe674 (.text)
                  c301b2a0    00000320     sysbios.lib : BIOS.obj (.text:ti_sysbios_timers_timer64_Timer_Module_startup__F)
                  c301b5c0    00000300     rts6740_elf.lib : fputs.obj (.text:fputs)
                  c301b8c0    000002e0     fa.oe674 (.text:_ZN9ActionOut3funEytt)
                  c301bba0    000002e0     rts6740_elf.lib : _printfi.obj (.text:_pproc_fwp)
                  c301be80    000002e0                     : cos.obj (.text:cos)
                  c301c160    000002e0     ipc.lib : Ipc.obj (.text:ti_sdo_ipc_nsremote_NameServerRemoteNotify_Instance_init__F)
                  c301c440    000002c0     rts6740_elf.lib : _printfi.obj (.text:_pproc_fge)
                  c301c700    000002a0                     : _printfi.obj (.text:ecvt)
                  c301c9a0    000002a0                     : _printfi.obj (.text:fcvt)
                  c301cc40    000002a0     ipc.lib : Ipc.obj (.text:ti_sdo_ipc_Ipc_procSyncStart__I)
                  c301cee0    000002a0             : Ipc.obj (.text:ti_sdo_ipc_transports_TransportShm_Instance_finalize__F)
                  c301d180    00000280             : Ipc.obj (.text:Ipc_start)
                  c301d400    00000280             : Ipc.obj (.text:ListMP_putTail)
                  c301d680    00000280             : Ipc.obj (.text:ListMP_remove)
                  c301d900    00000280     fa.oe674 (.text:_ZN11PowerDirect5PdFunEv)
                  c301db80    00000280     rts6740_elf.lib : divf.obj (.text:__c6xabi_divf)
                  c301de00    00000280     sysbios.lib : BIOS.obj (.text:deviceConfig$44)
                  c301e080    00000280     rts6740_elf.lib : sin.obj (.text:sin)
                  c301e300    00000280     ipc.lib : Ipc.obj (.text:ti_sdo_ipc_gates_GatePeterson_Instance_init__F)
                  c301e580    00000280     ti.targets.rts6000.ae674 : Core-mem.oe674 (.text:xdc_runtime_Core_createObject__I)
                  c301e800    00000280                              : Error.oe674 (.text:xdc_runtime_Error_raiseX__F)
                  c301ea80    00000280     Dsp_pe674.oe674 (.text:xdc_runtime_System_printfExtend__I)
                  c301ed00    00000260     fa.oe674 (.text:_ZN9ActionOutC1Ev)
                  c301ef60    00000260     rts6740_elf.lib : imath64.obj (.text:__c6xabi_divull)
                  c301f1c0    00000260                     : _printfi.obj (.text:_pconv_e)
                  c301f420    00000260     fft.oe674 (.text)
                  c301f680    00000260     sysbios.lib : BIOS.obj (.text:ti_sysbios_timers_timer64_Timer_setPeriodMicroSecs__E)
                  c301f8e0    00000260     ti.targets.rts6000.ae674 : Startup.oe674 (.text:xdc_runtime_Startup_startMods__I)
                  c301fb40    00000240     ipc.lib : Ipc.obj (.text:GateMP_openByAddr)
                  c301fd80    00000240             : Ipc.obj (.text:Notify_unregisterEvent)
                  c301ffc0    00000240     rts6740_elf.lib : _printfi.obj (.text:_pproc_diouxp)
                  c3020200    00000240     ipc.lib : Ipc.obj (.text:ti_sdo_ipc_family_da830_NotifySetup_attach__E)
                  c3020440    00000240             : Ipc.obj (.text:ti_sdo_ipc_heaps_HeapMemMP_getStats__E)
                  c3020680    00000240     sysbios.lib : BIOS.obj (.text:ti_sysbios_family_c64p_Exception_internalHandler__I)
                  c30208c0    00000240                 : BIOS.obj (.text:ti_sysbios_knl_Semaphore_pend__E)
                  c3020b00    00000240     ti.targets.rts6000.ae674 : LoggerBuf.oe674 (.text:xdc_runtime_LoggerBuf_write8__F)
                  c3020d40    00000220     rts6740_elf.lib : _printfi.obj (.text:_pproc_str)
                  c3020f60    00000220     ipc.lib : Ipc.obj (.text:ti_sdo_ipc_nsremote_NameServerRemoteNotify_swiFxn__I)
                  c3021180    00000220     sysbios.lib : BIOS.obj (.text:ti_sysbios_knl_Task_exit__E)
                  c30213a0    00000200     ipc.lib : Ipc.obj (.text:ListMP_getHead)
                  c30215a0    00000200     rts6740_elf.lib : _printfi.obj (.text:_pconv_g)
                  c30217a0    00000200     sysbios.lib : c64p_Hwi_disp_always.obj (.text:_ti_sysbios_family_c64p_Hwi_dispatchAlways)
                  c30219a0    00000200     ipc.lib : Ipc.obj (.text:ti_sdo_ipc_Ipc_procSyncFinish__I)
                  c3021ba0    00000200             : Ipc.obj (.text:ti_sdo_ipc_notifyDrivers_NotifyDriverShm_Instance_init__F)
                  c3021da0    00000200             : Ipc.obj (.text:ti_sdo_ipc_notifyDrivers_NotifyDriverShm_sendEvent__E)
                  c3021fa0    00000200     sysbios.lib : BIOS.obj (.text:ti_sysbios_gates_GateMutexPri_enter__E)
                  c30221a0    00000200                 : BIOS.obj (.text:ti_sysbios_knl_Task_Instance_finalize__F)
                  c30223a0    000001e0     ipc.lib : Ipc.obj (.text:GateMP_sharedMemReq)
                  c3022580    000001e0             : Ipc.obj (.text:ListMP_openByAddr)
                  c3022760    000001e0     fa.oe674 (.text:_ZN12CurrentCheck3funEyt)
                  c3022940    000001e0     sysbios.lib : BIOS.obj (.text:ti_sysbios_knl_Task_postInit__I)
                  c3022b20    000001c0     rts6740_elf.lib : _printfi.obj (.text:_mcpy)
                  c3022ce0    000001c0     sysbios.lib : BIOS.obj (.text:block$55)
                  c3022ea0    000001c0     atan2sp.oe674 (.text:optasm)
                  c3023060    000001c0     ipc.lib : Ipc.obj (.text:ti_sdo_ipc_GateMP_getFreeResource__I)
                  c3023220    000001c0             : Ipc.obj (.text:ti_sdo_ipc_heaps_HeapMemMP_postInit__I)
                  c30233e0    000001c0     sysbios.lib : BIOS.obj (.text:ti_sysbios_family_c64p_Hwi_reconfig__E)
                  c30235a0    000001c0                 : BIOS.obj (.text:ti_sysbios_knl_Task_checkStacks__E)
                  c3023760    000001a0     ipc.lib : Ipc.obj (.text:Ipc_writeConfig)
                  c3023900    000001a0     rts6740_elf.lib : vec_newdel.obj (.text:_Z17array_new_generalPvjjjS_PFYS_S_ES1_PFYS_jEPFYvS_Eii)
                  c3023aa0    000001a0                     : imath40.obj (.text:__c6xabi_divul)
                  c3023c40    000001a0     debug.oe674 (.text)
                  c3023de0    000001a0     ipc.lib : Ipc.obj (.text:ti_sdo_ipc_notifyDrivers_NotifyDriverShm_registerEvent__E)
                  c3023f80    000001a0             : Ipc.obj (.text:ti_sdo_ipc_notifyDrivers_NotifyDriverShm_unregisterEvent__E)
                  c3024120    000001a0     sysbios.lib : BIOS.obj (.text:ti_sysbios_knl_Task_Instance_init__F)
                  c30242c0    000001a0                 : BIOS.obj (.text:ti_sysbios_timers_timer64_Timer_start__E)
                  c3024460    000001a0     ti.targets.rts6000.ae674 : LoggerBuf.oe674 (.text:xdc_runtime_LoggerBuf_write4__F)
                  c3024600    00000180     rts6740_elf.lib : trgdrv.obj (.text:HOSTrename)
                  c3024780    00000180     ipc.lib : Ipc.obj (.text:NameServer_getHandle)
                  c3024900    00000180     localprotect.oe674 (.text:_ZN5Pulse3funEv)
                  c3024a80    00000180     rts6740_elf.lib : asin.obj (.text:asin)
                  c3024c00    00000180     expsp.oe674 (.text:optasm)
                  c3024d80    00000180     logsp.oe674 (.text:optasm)
                  c3024f00    00000180     rts6740_elf.lib : setvbuf.obj (.text:setvbuf)
                  c3025080    00000180     sysbios.lib : c64p_Exception_asm.obj (.text)
                  c3025200    00000180     ipc.lib : Ipc.obj (.text:ti_sdo_ipc_gates_GatePeterson_enter__E)
                  c3025380    00000180             : Ipc.obj (.text:ti_sdo_ipc_notifyDrivers_NotifyDriverShm_isr__I)
                  c3025500    00000180     sysbios.lib : BIOS.obj (.text:ti_sysbios_heaps_HeapMem_alloc__E)
                  c3025680    00000180                 : BIOS.obj (.text:ti_sysbios_knl_Swi_schedule__I)
                  c3025800    00000180                 : BIOS.obj (.text:ti_sysbios_knl_Task_schedule__I)
                  c3025980    00000180                 : BIOS.obj (.text:ti_sysbios_knl_Task_setPri__E)
                  c3025b00    00000180     ti.targets.rts6000.ae674 : Text.oe674 (.text:xdc_runtime_Text_putSite__F)
                  c3025c80    00000160     ipc.lib : Ipc.obj (.text:ti_sdo_ipc_GateMP_openRegion0Reserved__F)
                  c3025de0    00000160             : Ipc.obj (.text:ti_sdo_ipc_ListMP_Instance_finalize__F)
                  c3025f40    00000160             : Ipc.obj (.text:ti_sdo_ipc_Notify_Instance_init__F)
                  c30260a0    00000160             : Ipc.obj (.text:ti_sdo_ipc_heaps_HeapMemMP_Instance_finalize__F)
                  c3026200    00000160             : Ipc.obj (.text:ti_sdo_utils_NameServer_removeLocal__I)
                  c3026360    00000160     sysbios.lib : BIOS.obj (.text:ti_sysbios_family_c64p_Hwi_dispatchC__I)
                  c30264c0    00000160                 : BIOS.obj (.text:ti_sysbios_heaps_HeapMem_free__E)
                  c3026620    00000160                 : BIOS.obj (.text:ti_sysbios_knl_Task_startup__E)
                  c3026780    00000140     ipc.lib : Ipc.obj (.text:HeapMemMP_openByAddr)
                  c30268c0    00000140             : Ipc.obj (.text:MessageQ_put)
                  c3026a00    00000140             : Ipc.obj (.text:Notify_registerEvent)
                  c3026b40    00000140     localprotect.oe674 (.text:_ZN15DelayStartDelay3funEv)
                  c3026c80    00000140     boot.ae674 : autoinit.oe674 (.text:_auto_init_elf)
                  c3026dc0    00000140     rts6740_elf.lib : _printfi.obj (.text:_pproc_fflags)
                  c3026f00    00000140                     : fputc.obj (.text:fputc)
                  c3027040    00000140                     : lowlev.obj (.text:getdevice)
                  c3027180    00000140                     : sqrt.obj (.text:sqrt)
                  c30272c0    00000140     ipc.lib : Ipc.obj (.text:ti_sdo_ipc_SharedRegion_start__F)
                  c3027400    00000140             : Ipc.obj (.text:ti_sdo_ipc_notifyDrivers_NotifyDriverShm_disableEvent__E)
                  c3027540    00000140             : Ipc.obj (.text:ti_sdo_ipc_transports_TransportShm_openByAddr__F)
                  c3027680    00000140             : Ipc.obj (.text:ti_sdo_ipc_transports_TransportShm_put__E)
                  c30277c0    00000140     sysbios.lib : BIOS.obj (.text:ti_sysbios_family_c64p_Hwi_Module_startup__F)
                  c3027900    00000140                 : BIOS.obj (.text:ti_sysbios_knl_Task_Module_startup__F)
                  c3027a40    00000140                 : BIOS.obj (.text:ti_sysbios_knl_Task_sleep__E)
                  c3027b80    00000120     ipc.lib : Ipc.obj (.text:HeapMemMP_sharedMemReq)
                  c3027ca0    00000120     rts6740_elf.lib : vec_newdel.obj (.text:_Z20array_delete_generalPvijjPFYS_S_EiPFYvS_Eii)
                  c3027dc0    00000120     scada.oe674 (.text:_ZN10_ScadaParaC1Ev)
                  c3027ee0    00000120     rts6740_elf.lib : imath64.obj (.text:__c6xabi_divlli)
                  c3028000    00000120                     : fclose.obj (.text:fclose)
                  c3028120    00000120                     : frexp.obj (.text:frexp)
                  c3028240    00000120     cossp.oe674 (.text:optasm)
                  c3028360    00000120     powsp.oe674 (.text:optasm)
                  c3028480    00000120     sinsp.oe674 (.text:optasm)
                  c30285a0    00000120     thread.oe674 (.text)
                  c30286c0    00000120     ipc.lib : Ipc.obj (.text:ti_sdo_ipc_MessageQ_Module_startup__F)
                  c30287e0    00000120     Dsp_pe674.oe674 (.text:ti_sdo_ipc_Notify_Object__create__S)
                  c3028900    00000120     Dsp_pe674.oe674 (.text:ti_sdo_ipc_gates_GatePeterson_Object__create__S)
                  c3028a20    00000120     Dsp_pe674.oe674 (.text:ti_sdo_ipc_nsremote_NameServerRemoteNotify_Object__create__S)
                  c3028b40    00000120     Dsp_pe674.oe674 (.text:ti_sdo_ipc_transports_TransportShm_Object__create__S)
                  c3028c60    00000120     ipc.lib : Ipc.obj (.text:ti_sdo_ipc_transports_TransportShm_sharedMemReq__F)
                  c3028d80    00000120     sysbios.lib : BIOS.obj (.text:ti_sysbios_family_c64p_Cache_Module_startup__F)
                  c3028ea0    00000120     Dsp_pe674.oe674 (.text:ti_sysbios_family_c64p_Hwi_Object__create__S)
                  c3028fc0    00000120     Dsp_pe674.oe674 (.text:ti_sysbios_hal_Hwi_Object__create__S)
                  c30290e0    00000120     sysbios.lib : BIOS.obj (.text:ti_sysbios_knl_Clock_workFunc__E)
                  c3029200    00000120     Dsp_pe674.oe674 (.text:ti_sysbios_knl_Swi_Object__create__S)
                  c3029320    00000120     Dsp_pe674.oe674 (.text:ti_sysbios_knl_Task_Object__create__S)
                  c3029440    00000120     Dsp_pe674.oe674 (.text:ti_sysbios_timers_timer64_Timer_Object__create__S)
                  c3029560    00000120     ti.targets.rts6000.ae674 : LoggerBuf.oe674 (.text:xdc_runtime_LoggerBuf_setFilterLevel__F)
                  c3029680    00000120                              : Text.oe674 (.text:xdc_runtime_Text_putLab__F)
                  c30297a0    00000100     rts6740_elf.lib : trgdrv.obj (.text:HOSTlseek)
                  c30298a0    00000100     ipc.lib : Ipc.obj (.text:ListMP_sharedMemReq)
                  c30299a0    00000100             : Ipc.obj (.text:Notify_registerEventSingle)
                  c3029aa0    00000100             : Ipc.obj (.text:Notify_sendEvent)
                  c3029ba0    00000100             : Ipc.obj (.text:Notify_unregisterEventSingle)
                  c3029ca0    00000100     fa.oe674 (.text:_ZN12CurrentCheckC1Ev)
                  c3029da0    00000100     fa.oe674 (.text:_ZN19DelayStartDelayPlus19Plus01_T1_1_10_T2_0EbllyP13BASEPROSTATU2)
                  c3029ea0    00000100     rts6740_elf.lib : _printfi.obj (.text:_ltostr)
                  c3029fa0    00000100                     : _io_perm.obj (.text:_wrt_ok)
                  c302a0a0    00000100     sysbios.lib : BIOS.obj (.text:initDevice$44)
                  c302a1a0    00000100     Dsp_pe674.oe674 (.text:ti_sdo_ipc_GateMP_Object__create__S)
                  c302a2a0    00000100     ipc.lib : Ipc.obj (.text:ti_sdo_ipc_GateMP_start__F)
                  c302a3a0    00000100     Dsp_pe674.oe674 (.text:ti_sdo_ipc_ListMP_Object__create__S)
                  c302a4a0    00000100     ipc.lib : Ipc.obj (.text:ti_sdo_ipc_Notify_Instance_finalize__F)
                  c302a5a0    00000100             : Ipc.obj (.text:ti_sdo_ipc_SharedRegion_attach__F)
                  c302a6a0    00000100             : Ipc.obj (.text:ti_sdo_ipc_SharedRegion_clearReservedMemory__F)
                  c302a7a0    00000100     Dsp_pe674.oe674 (.text:ti_sdo_ipc_heaps_HeapMemMP_Object__create__S)
                  c302a8a0    00000100     Dsp_pe674.oe674 (.text:ti_sdo_ipc_notifyDrivers_NotifyDriverShm_Object__create__S)
                  c302a9a0    00000100     ipc.lib : Ipc.obj (.text:ti_sdo_ipc_nsremote_NameServerRemoteNotify_Instance_finalize__F)
                  c302aaa0    00000100             : Ipc.obj (.text:ti_sdo_ipc_transports_TransportShmSetup_attach__E)
                  c302aba0    00000100             : Ipc.obj (.text:ti_sdo_utils_NameServer_findLocal__I)
                  c302aca0    00000100     sysbios.lib : BIOS.obj (.text:ti_sysbios_gates_GateMutexPri_leave__E)
                  c302ada0    00000100                 : BIOS.obj (.text:ti_sysbios_knl_Swi_restoreHwi__E)
                  c302aea0    00000100     ti.targets.rts6000.ae674 : Core-mem.oe674 (.text:xdc_runtime_Core_deleteObject__I)
                  c302afa0    00000100     Dsp_pe674.oe674 (.text:xdc_runtime_LoggerBuf_Object__create__S)
                  c302b0a0    00000100     ti.targets.rts6000.ae674 : LoggerBuf.oe674 (.text:xdc_runtime_LoggerBuf_getFilterLevel__F)
                  c302b1a0    00000100     Dsp_pe674.oe674 (.text:xdc_runtime_Registry_findByNamePattern__E)
                  c302b2a0    00000100     ti.targets.rts6000.ae674 : Startup.oe674 (.text:xdc_runtime_Startup_exec__F)
                  c302b3a0    00000100                              : Text.oe674 (.text:xdc_runtime_Text_putMod__F)
                  c302b4a0    00000100                              : Text.oe674 (.text:xdc_runtime_Text_visitRope2__I)
                  c302b5a0    00000100     Dsp_pe674.oe674 (.text:xdc_runtime_knl_GateThread_Object__create__S)
                  c302b6a0    000000e0     rts6740_elf.lib : trgdrv.obj (.text:HOSTopen)
                  c302b780    000000e0     ipc.lib : Ipc.obj (.text:NameServer_getLocal)
                  c302b860    000000e0     localprotect.oe674 (.text:_ZN10DelayStart3funEv)
                  c302b940    000000e0     localprotect.oe674 (.text:_ZN11ConterSleep3funEv)
                  c302ba20    000000e0     localprotect.oe674 (.text:_ZN12ConterRuning3funEv)
                  c302bb00    000000e0     localprotect.oe674 (.text:_ZN13ConterReached3funEv)
                  c302bbe0    000000e0     rts6740_elf.lib : divi.obj (.text:__divi)
                  c302bcc0    000000e0                     : atoi.obj (.text:atoi)
                  c302bda0    000000e0                     : lowlev.obj (.text:close)
                  c302be80    000000e0     dsp.oe674 (.text)
                  c302bf60    000000e0     rts6740_elf.lib : exit.obj (.text:exit)
                  c302c040    000000e0                     : ltoa.obj (.text:ltoa)
                  c302c120    000000e0                     : memset.obj (.text:memset)
                  c302c200    000000e0     ipc.lib : Ipc.obj (.text:ti_sdo_ipc_Ipc_getMasterAddr__I)
                  c302c2e0    000000e0             : Ipc.obj (.text:ti_sdo_ipc_Ipc_getSlaveAddr__I)
                  c302c3c0    000000e0             : Ipc.obj (.text:ti_sdo_ipc_Notify_detach__F)
                  c302c4a0    000000e0             : Ipc.obj (.text:ti_sdo_ipc_SharedRegion_reserveMemory__F)
                  c302c580    000000e0             : Ipc.obj (.text:ti_sdo_ipc_gates_GatePeterson_sharedMemReq__E)
                  c302c660    000000e0             : Ipc.obj (.text:ti_sdo_utils_NameServer_Module_startup__F)
                  c302c740    000000e0     sysbios.lib : BIOS.obj (.text:ti_sysbios_knl_Clock_startI__E)
                  c302c820    000000e0                 : BIOS.obj (.text:ti_sysbios_knl_Task_unblockI__E)
                  c302c900    000000e0                 : BIOS.obj (.text:ti_sysbios_timers_timer64_Timer_startup__E)
                  c302c9e0    000000e0     ti.targets.rts6000.ae674 : Error.oe674 (.text:xdc_runtime_Error_print__F)
                  c302cac0    000000e0                              : Memory.oe674 (.text:xdc_runtime_Memory_alloc__F)
                  c302cba0    000000e0     Dsp_pe674.oe674 (.text:xdc_runtime_Registry_addModule__E)
                  c302cc80    000000e0     Dsp_pe674.oe674 (.text:xdc_runtime_Registry_findById__E)
                  c302cd60    000000c0     rts6740_elf.lib : trgdrv.obj (.text:HOSTread)
                  c302ce20    000000c0                     : trgdrv.obj (.text:HOSTunlink)
                  c302cee0    000000c0                     : trgdrv.obj (.text:HOSTwrite)
                  c302cfa0    000000c0     ipc.lib : Ipc.obj (.text:HeapMemMP_create)
                  c302d060    000000c0             : Ipc.obj (.text:ListMP_create)
                  c302d120    000000c0             : Ipc.obj (.text:MultiProc_getId)
                  c302d1e0    000000c0             : Ipc.obj (.text:SharedRegion_getId)
                  c302d2a0    000000c0     localprotect.oe674 (.text:_ZN11StartConter3funEv)
                  c302d360    000000c0     localprotect.oe674 (.text:_ZN12ANALOGSTEADY3funEv)
                  c302d420    000000c0     fa.oe674 (.text:_ZN13DirecBaseCalc3FunE7complexS0_ff)
                  c302d4e0    000000c0     fa.oe674 (.text:_ZN6ChzOutC1Ev)
                  c302d5a0    000000c0     localprotect.oe674 (.text:_ZN7NewToolI8BaseToolE6ConfigE8NODEDATA)
                  c302d660    000000c0     rts6740_elf.lib : dtor_list.obj (.text:__cxa_finalize)
                  c302d720    000000c0                     : divu.obj (.text:__divu)
                  c302d7e0    000000c0                     : remi.obj (.text:__remi)
                  c302d8a0    000000c0                     : fopen.obj (.text:_cleanup)
                  c302d960    000000c0                     : _printfi.obj (.text:_div)
                  c302da20    000000c0                     : fflush.obj (.text:_doflush)
                  c302dae0    000000c0                     : fseek.obj (.text:fseek)
                  c302dba0    000000c0                     : lowlev.obj (.text:lseek)
                  c302dc60    000000c0     ipc.lib : Ipc.obj (.text:ti_sdo_ipc_GateMP_attach__F)
                  c302dd20    000000c0             : Ipc.obj (.text:ti_sdo_ipc_ListMP_elemClear__I)
                  c302dde0    000000c0             : Ipc.obj (.text:ti_sdo_ipc_Notify_execMany__I)
                  c302dea0    000000c0             : Ipc.obj (.text:ti_sdo_ipc_family_da830_InterruptDsp_intRegister__E)
                  c302df60    000000c0             : Ipc.obj (.text:ti_sdo_ipc_gates_GatePeterson_postInit__I)
                  c302e020    000000c0             : Ipc.obj (.text:ti_sdo_ipc_nsremote_NameServerRemoteNotify_attach__E)
                  c302e0e0    000000c0             : Ipc.obj (.text:ti_sdo_utils_NameServer_postInit__I)
                  c302e1a0    000000c0     sysbios.lib : BIOS.obj (.text:ti_sysbios_BIOS_errorRaiseHook__I)
                  c302e260    000000c0                 : BIOS.obj (.text:ti_sysbios_family_c64p_Hwi_Instance_init__F)
                  c302e320    000000c0                 : BIOS.obj (.text:ti_sysbios_heaps_HeapMem_getStats__E)
                  c302e3e0    000000c0                 : BIOS.obj (.text:ti_sysbios_knl_Idle_loop__E)
                  c302e4a0    000000c0                 : BIOS.obj (.text:ti_sysbios_knl_Semaphore_post__E)
                  c302e560    000000c0                 : BIOS.obj (.text:ti_sysbios_knl_Swi_run__I)
                  c302e620    000000c0                 : BIOS.obj (.text:ti_sysbios_timers_timer64_Timer_stop__E)
                  c302e6e0    000000c0     rts6740_elf.lib : lowlev.obj (.text:write)
                  c302e7a0    000000c0     ti.targets.rts6000.ae674 : LoggerBuf.oe674 (.text:xdc_runtime_LoggerBuf_Instance_init__F)
                  c302e860    000000c0                              : System.oe674 (.text:xdc_runtime_System_formatNum__I)
                  c302e920    000000c0                              : Text.oe674 (.text:xdc_runtime_Text_matchVisFxn__I)
                  c302e9e0    000000a0     rts6740_elf.lib : trgdrv.obj (.text:HOSTclose)
                  c302ea80    000000a0     ipc.lib : Ipc.obj (.text:SharedRegion_getPtr)
                  c302eb20    000000a0             : Ipc.obj (.text:SharedRegion_getSRPtr)
                  c302ebc0    000000a0     fa.oe674 (.text:_ZN10CURRENTPROC1Ev)
                  c302ec60    000000a0     fa.oe674 (.text:_ZN32DelayStartAndDelayStartDelayTime5TCel1EbmyP12BASEPROSTATU)
                  c302ed00    000000a0     rts6740_elf.lib : new_.obj (.text:_Znwj)
                  c302eda0    000000a0                     : round.obj (.text:__c6xabi_nround)
                  c302ee40    000000a0                     : remu.obj (.text:__remu)
                  c302eee0    000000a0     boot.ae674 : boot.oe674 (.text:_c_int00)
                  c302ef80    000000a0     rts6740_elf.lib : _printfi.obj (.text:_ecpy)
                  c302f020    000000a0                     : _printfi.obj (.text:_fcpy)
                  c302f0c0    000000a0                     : _printfi.obj (.text:_pconv_f)
                  c302f160    000000a0     sysbios.lib : c64p_Hwi_asm.obj (.text:_ti_sysbios_family_c64p_Hwi_plug__E)
                  c302f200    000000a0     delay.oe674 (.text)
                  c302f2a0    000000a0     rts6740_elf.lib : lowlev.obj (.text:finddevice)
                  c302f340    000000a0     Dsp_pe674.oe674 (.text:malloc)
                  c302f3e0    000000a0     rts6740_elf.lib : memcpy64.obj (.text:memcpy)
                  c302f480    000000a0                     : modf.obj (.text:modf)
                  c302f520    000000a0     sqrtsp.oe674 (.text:optasm)
                  c302f5c0    000000a0     ipc.lib : Ipc.obj (.text:ti_sdo_ipc_GateMP_getRegion0ReservedSize__F)
                  c302f660    000000a0     Dsp_pe674.oe674 (.text:ti_sdo_ipc_gates_GateMPSupportNull_Object__create__S)
                  c302f700    000000a0     ipc.lib : Ipc.obj (.text:ti_sdo_ipc_gates_GatePeterson_leave__E)
                  c302f7a0    000000a0             : Ipc.obj (.text:ti_sdo_ipc_notifyDrivers_NotifyDriverShm_Instance_finalize__F)
                  c302f840    000000a0             : Ipc.obj (.text:ti_sdo_ipc_transports_TransportShmSetup_detach__E)
                  c302f8e0    000000a0     sysbios.lib : BIOS.obj (.text:ti_sysbios_heaps_HeapMem_init__I)
                  c302f980    000000a0                 : BIOS.obj (.text:ti_sysbios_knl_Clock_Instance_init__F)
                  c302fa20    000000a0     Dsp_pe674.oe674 (.text:ti_sysbios_knl_Clock_Object__create__S)
                  c302fac0    000000a0     Dsp_pe674.oe674 (.text:ti_sysbios_knl_Clock_doTick__I)
                  c302fb60    000000a0     Dsp_pe674.oe674 (.text:ti_sysbios_knl_Semaphore_Object__create__S)
                  c302fc00    000000a0     sysbios.lib : BIOS.obj (.text:ti_sysbios_knl_Swi_Instance_init__F)
                  c302fca0    000000a0                 : BIOS.obj (.text:ti_sysbios_knl_Swi_post__E)
                  c302fd40    000000a0     ti.targets.rts6000.ae674 : Assert.oe674 (.text:xdc_runtime_Assert_raise__I)
                  c302fde0    000000a0                              : LoggerBuf.oe674 (.text:xdc_runtime_LoggerBuf_Module_startup__F)
                  c302fe80    000000a0                              : Registry.oe674 (.text:xdc_runtime_Registry_addModule__F)
                  c302ff20    000000a0                              : Registry.oe674 (.text:xdc_runtime_Registry_findByName__F)
                  c302ffc0    000000a0                              : SysMin.oe674 (.text:xdc_runtime_SysMin_abort__F)
                  c3030060    000000a0                              : SysMin.oe674 (.text:xdc_runtime_SysMin_flush__F)
                  c3030100    000000a0                              : SysMin.oe674 (.text:xdc_runtime_SysMin_putch__F)
                  c30301a0    00000080     ipc.lib : Ipc.obj (.text:GateMP_close)
                  c3030220    00000080             : Ipc.obj (.text:HeapMemMP_restore)
                  c30302a0    00000080             : Ipc.obj (.text:Ipc_stop)
                  c3030320    00000080     rts6740_elf.lib : dtor_list.obj (.text:_Z11__TI_atexitPFYvPvES_S_)
                  c30303a0    00000080     localprotect.oe674 (.text:_ZN10StopConter3funEv)
                  c3030420    00000080     localprotect.oe674 (.text:_ZN12LocalProtectC1Ev)
                  c30304a0    00000080     fa.oe674 (.text:_ZN15ConterDelayPlus11CheckConterEyP9setmstime)
                  c3030520    00000080     localprotect.oe674 (.text:_ZN5Pulse6ConfigE8NODEDATA)
                  c30305a0    00000080     localprotect.oe674 (.text:_ZN6STEADY3funEv)
                  c3030620    00000080     localprotect.oe674 (.text:_ZN7COMPARE3funEv)
                  c30306a0    00000080     fa.oe674 (.text:_ZN7Counter11CheckConterEyP9setmstime)
                  c3030720    00000080     fa.oe674 (.text:_ZN7_FaParaC1Ev)
                  c30307a0    00000080     rts6740_elf.lib : llshift.obj (.text:__c6xabi_llshl)
                  c3030820    00000080     sysbios.lib : c62_TaskSupport_asm.obj (.text:_ti_sysbios_family_c62_TaskSupport_swap__E)
                  c30308a0    00000080     rts6740_elf.lib : fprintf.obj (.text:fprintf)
                  c3030920    00000080                     : printf.obj (.text:printf)
                  c30309a0    00000080                     : trgmsg.obj (.text:readmsg)
                  c3030a20    00000080     ipc.lib : Ipc.obj (.text:ti_sdo_ipc_Notify_Module_startup__F)
                  c3030aa0    00000080             : Ipc.obj (.text:ti_sdo_ipc_family_da830_NotifySetup_sharedMemReq__E)
                  c3030b20    00000080             : Ipc.obj (.text:ti_sdo_ipc_notifyDrivers_NotifyDriverShm_sharedMemReq__F)
                  c3030ba0    00000080             : Ipc.obj (.text:ti_sdo_ipc_nsremote_NameServerRemoteNotify_detach__E)
                  c3030c20    00000080             : Ipc.obj (.text:ti_sdo_ipc_transports_TransportShm_swiFxn__I)
                  c3030ca0    00000080     Dsp_pe674.oe674 (.text:ti_sdo_utils_List_Object__create__S)
                  c3030d20    00000080     Dsp_pe674.oe674 (.text:ti_sysbios_BIOS_exitFunc__I)
                  c3030da0    00000080     sysbios.lib : BIOS.obj (.text:ti_sysbios_family_c62_TaskSupport_start__E)
                  c3030e20    00000080                 : BIOS.obj (.text:ti_sysbios_family_c64p_Hwi_Instance_finalize__F)
                  c3030ea0    00000080                 : BIOS.obj (.text:ti_sysbios_family_c64p_Hwi_eventMap__E)
                  c3030f20    00000080     Dsp_pe674.oe674 (.text:ti_sysbios_gates_GateAll_Object__create__S)
                  c3030fa0    00000080     Dsp_pe674.oe674 (.text:ti_sysbios_gates_GateHwi_Object__create__S)
                  c3031020    00000080     Dsp_pe674.oe674 (.text:ti_sysbios_gates_GateMutexPri_Object__create__S)
                  c30310a0    00000080     Dsp_pe674.oe674 (.text:ti_sysbios_gates_GateMutex_Object__create__S)
                  c3031120    00000080     sysbios.lib : BIOS.obj (.text:ti_sysbios_gates_GateMutex_enter__E)
                  c30311a0    00000080     Dsp_pe674.oe674 (.text:ti_sysbios_gates_GateSwi_Object__create__S)
                  c3031220    00000080     sysbios.lib : BIOS.obj (.text:ti_sysbios_heaps_HeapMem_Instance_init__F)
                  c30312a0    00000080     Dsp_pe674.oe674 (.text:ti_sysbios_heaps_HeapMem_Object__create__S)
                  c3031320    00000080     sysbios.lib : BIOS.obj (.text:ti_sysbios_knl_Clock_Module_startup__F)
                  c30313a0    00000080                 : BIOS.obj (.text:ti_sysbios_knl_Clock_getTicks__E)
                  c3031420    00000080     Dsp_pe674.oe674 (.text:ti_sysbios_knl_Queue_Object__create__S)
                  c30314a0    00000080     sysbios.lib : BIOS.obj (.text:ti_sysbios_knl_Swi_restore__E)
                  c3031520    00000080                 : BIOS.obj (.text:ti_sysbios_knl_Swi_startup__E)
                  c30315a0    00000080                 : BIOS.obj (.text:ti_sysbios_knl_Task_restore__E)
                  c3031620    00000080                 : BIOS.obj (.text:ti_sysbios_knl_Task_yield__E)
                  c30316a0    00000080                 : BIOS.obj (.text:ti_sysbios_timers_timer64_Timer_Instance_finalize__F)
                  c3031720    00000080                 : BIOS.obj (.text:ti_sysbios_timers_timer64_Timer_getExpiredCounts__E)
                  c30317a0    00000080                 : BIOS.obj (.text:ti_sysbios_timers_timer64_Timer_getPeriod__E)
                  c3031820    00000080     Dsp_pe674.oe674 (.text:ti_sysbios_xdcruntime_GateThreadSupport_Object__create__S)
                  c30318a0    00000080     rts6740_elf.lib : lowlev.obj (.text:unlink)
                  c3031920    00000080     ti.targets.rts6000.ae674 : Core-label.oe674 (.text:xdc_runtime_Core_assignLabel__I)
                  c30319a0    00000080                              : Core-params.oe674 (.text:xdc_runtime_Core_assignParams__I)
                  c3031a20    00000080                              : LoggerBuf.oe674 (.text:xdc_runtime_LoggerBuf_filterOutEvent__I)
                  c3031aa0    00000080                              : Registry.oe674 (.text:xdc_runtime_Registry_findByNamePattern__F)
                  c3031b20    00000080                              : Registry.oe674 (.text:xdc_runtime_Registry_matchPattern__I)
                  c3031ba0    00000080     Dsp_pe674.oe674 (.text:xdc_runtime_SysMin_output__I)
                  c3031c20    00000080     ti.targets.rts6000.ae674 : System.oe674 (.text:xdc_runtime_System_atexit__F)
                  c3031ca0    00000080                              : System.oe674 (.text:xdc_runtime_System_rtsExit__I)
                  c3031d20    00000080                              : Text.oe674 (.text:xdc_runtime_Text_printVisFxn__I)
                  c3031da0    00000080                              : Text.oe674 (.text:xdc_runtime_Text_xprintf__I)
                  c3031e20    00000060     ipc.lib : Ipc.obj (.text:GateMP_Params_init)
                  c3031e80    00000060             : Ipc.obj (.text:HeapMemMP_Params_init)
                  c3031ee0    00000060             : Ipc.obj (.text:Notify_numIntLines)
                  c3031f40    00000060             : Ipc.obj (.text:Notify_sharedMemReq)
                  c3031fa0    00000060     localprotect.oe674 (.text:_ZN10COMPARETAB6GetLabEv)
                  c3032000    00000060     localprotect.oe674 (.text:_ZN10DelayStart6ConfigE8NODEDATA)
                  c3032060    00000060     localprotect.oe674 (.text:_ZN10HIGHANALOG3funEv)
                  c30320c0    00000060     localprotect.oe674 (.text:_ZN11StartConter6ConfigE8NODEDATA)
                  c3032120    00000060     localprotect.oe674 (.text:_ZN12ANALOGSTEADY6ConfigE8NODEDATA)
                  c3032180    00000060     localprotect.oe674 (.text:_ZN12LOWANALOGTAB6GetLabEv)
                  c30321e0    00000060     localprotect.oe674 (.text:_ZN13DelayStartTAB6GetLabEv)
                  c3032240    00000060     localprotect.oe674 (.text:_ZN13HIGHANALOGTAB6GetLabEv)
                  c30322a0    00000060     localprotect.oe674 (.text:_ZN13StopConterTAB6GetLabEv)
                  c3032300    00000060     localprotect.oe674 (.text:_ZN14ConterSleepTAB6GetLabEv)
                  c3032360    00000060     localprotect.oe674 (.text:_ZN14StartConterTAB6GetLabEv)
                  c30323c0    00000060     localprotect.oe674 (.text:_ZN15ANALOGSTEADYTAB6GetLabEv)
                  c3032420    00000060     fa.oe674 (.text:_ZN15ConterDelayPlus11StartConterEmyP9setmstime)
                  c3032480    00000060     localprotect.oe674 (.text:_ZN15ConterRuningTAB6GetLabEv)
                  c30324e0    00000060     localprotect.oe674 (.text:_ZN15DelayStartDelay6ConfigE8NODEDATA)
                  c3032540    00000060     localprotect.oe674 (.text:_ZN16ConterReachedTAB6GetLabEv)
                  c30325a0    00000060     localprotect.oe674 (.text:_ZN18DelayStartDelayTAB6GetLabEv)
                  c3032600    00000060     localprotect.oe674 (.text:_ZN3XOR3funEv)
                  c3032660    00000060     localprotect.oe674 (.text:_ZN4XNOR3funEv)
                  c30326c0    00000060     localprotect.oe674 (.text:_ZN5ORTAB6GetLabEv)
                  c3032720    00000060     localprotect.oe674 (.text:_ZN6ANDTAB6GetLabEv)
                  c3032780    00000060     localprotect.oe674 (.text:_ZN6LPPARAC1Ev)
                  c30327e0    00000060     localprotect.oe674 (.text:_ZN6NOTTAB6GetLabEv)
                  c3032840    00000060     localprotect.oe674 (.text:_ZN6XORTAB6GetLabEv)
                  c30328a0    00000060     localprotect.oe674 (.text:_ZN7COMPARE6ConfigE8NODEDATA)
                  c3032900    00000060     fa.oe674 (.text:_ZN7Counter11StartConterEmyP9setmstime)
                  c3032960    00000060     localprotect.oe674 (.text:_ZN7NANDTAB6GetLabEv)
                  c30329c0    00000060     localprotect.oe674 (.text:_ZN7XNORTAB6GetLabEv)
                  c3032a20    00000060     localprotect.oe674 (.text:_ZN8EQUALTAB6GetLabEv)
                  c3032a80    00000060     localprotect.oe674 (.text:_ZN8PulseTAB6GetLabEv)
                  c3032ae0    00000060     fa.oe674 (.text:_ZN9ActionOut10ReadSoeIRFEt)
                  c3032b40    00000060     localprotect.oe674 (.text:_ZN9LOWANALOG3funEv)
                  c3032ba0    00000060     localprotect.oe674 (.text:_ZN9STEADYTAB6GetLabEv)
                  c3032c00    00000060     rts6740_elf.lib : vec_newdel.obj (.text:__cxa_vec_ctor)
                  c3032c60    00000060                     : imath64.obj (.text:_subcull)
                  c3032cc0    00000060     sysbios.lib : BIOS.obj (.text:all$55)
                  c3032d20    00000060                 : BIOS.obj (.text:marInit$55)
                  c3032d80    00000060     rts6740_elf.lib : memccpy.obj (.text:memccpy)
                  c3032de0    00000060     sysbios.lib : BIOS.obj (.text:rtsUnlock$0)
                  c3032e40    00000060     rts6740_elf.lib : strcpy.obj (.text:strcpy)
                  c3032ea0    00000060                     : strpbrk.obj (.text:strpbrk)
                  c3032f00    00000060     Dsp_pe674.oe674 (.text:ti_sdo_ipc_GateMP_Object__delete__S)
                  c3032f60    00000060     ipc.lib : Ipc.obj (.text:ti_sdo_ipc_GateMP_createLocal__F)
                  c3032fc0    00000060             : Ipc.obj (.text:ti_sdo_ipc_Ipc_getRegion0ReservedSize__I)
                  c3033020    00000060     Dsp_pe674.oe674 (.text:ti_sdo_ipc_ListMP_Object__delete__S)
                  c3033080    00000060     Dsp_pe674.oe674 (.text:ti_sdo_ipc_Notify_Object__delete__S)
                  c30330e0    00000060     Dsp_pe674.oe674 (.text:ti_sdo_ipc_gates_GateMPSupportNull_Handle__label__S)
                  c3033140    00000060     Dsp_pe674.oe674 (.text:ti_sdo_ipc_gates_GateMPSupportNull_Object__delete__S)
                  c30331a0    00000060     Dsp_pe674.oe674 (.text:ti_sdo_ipc_gates_GatePeterson_Handle__label__S)
                  c3033200    00000060     ipc.lib : Ipc.obj (.text:ti_sdo_ipc_gates_GatePeterson_Instance_finalize__F)
                  c3033260    00000060     Dsp_pe674.oe674 (.text:ti_sdo_ipc_gates_GatePeterson_Object__delete__S)
                  c30332c0    00000060     Dsp_pe674.oe674 (.text:ti_sdo_ipc_heaps_HeapMemMP_Handle__label__S)
                  c3033320    00000060     Dsp_pe674.oe674 (.text:ti_sdo_ipc_heaps_HeapMemMP_Object__delete__S)
                  c3033380    00000060     Dsp_pe674.oe674 (.text:ti_sdo_ipc_notifyDrivers_NotifyDriverShm_Handle__label__S)
                  c30333e0    00000060     Dsp_pe674.oe674 (.text:ti_sdo_ipc_notifyDrivers_NotifyDriverShm_Object__delete__S)
                  c3033440    00000060     ipc.lib : Ipc.obj (.text:ti_sdo_ipc_notifyDrivers_NotifyDriverShm_enableEvent__E)
                  c30334a0    00000060             : Ipc.obj (.text:ti_sdo_ipc_notifyDrivers_NotifyDriverShm_setNotifyHandle__E)
                  c3033500    00000060     Dsp_pe674.oe674 (.text:ti_sdo_ipc_nsremote_NameServerRemoteNotify_Handle__label__S)
                  c3033560    00000060     Dsp_pe674.oe674 (.text:ti_sdo_ipc_nsremote_NameServerRemoteNotify_Object__delete__S)
                  c30335c0    00000060     ipc.lib : Ipc.obj (.text:ti_sdo_ipc_transports_TransportShmSetup_sharedMemReq__E)
                  c3033620    00000060     Dsp_pe674.oe674 (.text:ti_sdo_ipc_transports_TransportShm_Handle__label__S)
                  c3033680    00000060     Dsp_pe674.oe674 (.text:ti_sdo_ipc_transports_TransportShm_Object__delete__S)
                  c30336e0    00000060     sysbios.lib : BIOS.obj (.text:ti_sysbios_BIOS_registerRTSLock__I)
                  c3033740    00000060                 : BIOS.obj (.text:ti_sysbios_family_c64p_Cache_setMar__E)
                  c30337a0    00000060                 : BIOS.obj (.text:ti_sysbios_family_c64p_Cache_wait__E)
                  c3033800    00000060                 : BIOS.obj (.text:ti_sysbios_family_c64p_Exception_Module_startup__F)
                  c3033860    00000060     Dsp_pe674.oe674 (.text:ti_sysbios_family_c64p_Hwi_Object__delete__S)
                  c30338c0    00000060     sysbios.lib : BIOS.obj (.text:ti_sysbios_family_c64p_primus_TimerSupport_enable__E)
                  c3033920    00000060     Dsp_pe674.oe674 (.text:ti_sysbios_gates_GateAll_Handle__label__S)
                  c3033980    00000060     Dsp_pe674.oe674 (.text:ti_sysbios_gates_GateAll_Object__delete__S)
                  c30339e0    00000060     sysbios.lib : BIOS.obj (.text:ti_sysbios_gates_GateAll_enter__E)
                  c3033a40    00000060     Dsp_pe674.oe674 (.text:ti_sysbios_gates_GateHwi_Handle__label__S)
                  c3033aa0    00000060     Dsp_pe674.oe674 (.text:ti_sysbios_gates_GateHwi_Object__delete__S)
                  c3033b00    00000060     Dsp_pe674.oe674 (.text:ti_sysbios_gates_GateMutexPri_Handle__label__S)
                  c3033b60    00000060     Dsp_pe674.oe674 (.text:ti_sysbios_gates_GateMutexPri_Object__delete__S)
                  c3033bc0    00000060     Dsp_pe674.oe674 (.text:ti_sysbios_gates_GateMutex_Handle__label__S)
                  c3033c20    00000060     sysbios.lib : BIOS.obj (.text:ti_sysbios_gates_GateMutex_Instance_init__F)
                  c3033c80    00000060     Dsp_pe674.oe674 (.text:ti_sysbios_gates_GateMutex_Object__delete__S)
                  c3033ce0    00000060     Dsp_pe674.oe674 (.text:ti_sysbios_gates_GateSwi_Handle__label__S)
                  c3033d40    00000060     Dsp_pe674.oe674 (.text:ti_sysbios_gates_GateSwi_Object__delete__S)
                  c3033da0    00000060     sysbios.lib : BIOS.obj (.text:ti_sysbios_hal_Hwi_Instance_init__F)
                  c3033e00    00000060     Dsp_pe674.oe674 (.text:ti_sysbios_hal_Hwi_Object__delete__S)
                  c3033e60    00000060     sysbios.lib : BIOS.obj (.text:ti_sysbios_hal_Hwi_checkStack:ti_sysbios_hal_Hwi_checkStack)
                  c3033ec0    00000060                 : BIOS.obj (.text:ti_sysbios_hal_Hwi_initStack:ti_sysbios_hal_Hwi_initStack)
                  c3033f20    00000060     Dsp_pe674.oe674 (.text:ti_sysbios_heaps_HeapMem_Handle__label__S)
                  c3033f80    00000060     Dsp_pe674.oe674 (.text:ti_sysbios_heaps_HeapMem_Object__delete__S)
                  c3033fe0    00000060     sysbios.lib : BIOS.obj (.text:ti_sysbios_knl_Clock_setupTimerToSkipTicks__E)
                  c3034040    00000060                 : BIOS.obj (.text:ti_sysbios_knl_Semaphore_Instance_init__F)
                  c30340a0    00000060     Dsp_pe674.oe674 (.text:ti_sysbios_knl_Semaphore_Object__delete__S)
                  c3034100    00000060     sysbios.lib : BIOS.obj (.text:ti_sysbios_knl_Semaphore_pendTimeout__I)
                  c3034160    00000060                 : BIOS.obj (.text:ti_sysbios_knl_Swi_Module_startup__F)
                  c30341c0    00000060     Dsp_pe674.oe674 (.text:ti_sysbios_knl_Task_Object__delete__S)
                  c3034220    00000060     sysbios.lib : BIOS.obj (.text:ti_sysbios_knl_Task_allBlockedFunction__I)
                  c3034280    00000060                 : BIOS.obj (.text:ti_sysbios_knl_Task_enter__I)
                  c30342e0    00000060     Dsp_pe674.oe674 (.text:ti_sysbios_xdcruntime_GateThreadSupport_Object__delete__S)
                  c3034340    00000060     ti.syslink.ipc.rtos.ae674 : Syslink.oe674 (.text:ti_syslink_ipc_rtos_Syslink_attach)
                  c30343a0    00000060     rts6740_elf.lib : trgmsg.obj (.text:writemsg)
                  c3034400    00000060     Dsp_pe674.oe674 (.text:xdc_runtime_GateNull_Handle__label__S)
                  c3034460    00000060     Dsp_pe674.oe674 (.text:xdc_runtime_GateNull_Object__create__S)
                  c30344c0    00000060     Dsp_pe674.oe674 (.text:xdc_runtime_GateNull_Object__delete__S)
                  c3034520    00000060     Dsp_pe674.oe674 (.text:xdc_runtime_LoggerBuf_Handle__label__S)
                  c3034580    00000060     Dsp_pe674.oe674 (.text:xdc_runtime_LoggerBuf_Object__delete__S)
                  c30345e0    00000060     ti.targets.rts6000.ae674 : Memory.oe674 (.text:xdc_runtime_Memory_calloc__F)
                  c3034640    00000060                              : Memory.oe674 (.text:xdc_runtime_Memory_valloc__F)
                  c30346a0    00000060                              : SysMin.oe674 (.text:xdc_runtime_SysMin_Module_startup__F)
                  c3034700    00000060                              : SysMin.oe674 (.text:xdc_runtime_SysMin_exit__F)
                  c3034760    00000060                              : System.oe674 (.text:xdc_runtime_System_aprintf_va__F)
                  c30347c0    00000060                              : System.oe674 (.text:xdc_runtime_System_printf_va__F)
                  c3034820    00000060                              : Text.oe674 (.text:xdc_runtime_Text_cordText__F)
                  c3034880    00000060     Dsp_pe674.oe674 (.text:xdc_runtime_knl_GateThread_Handle__label__S)
                  c30348e0    00000060     Dsp_pe674.oe674 (.text:xdc_runtime_knl_GateThread_Object__delete__S)
                  c3034940    00000040     ipc.lib : Ipc.obj (.text:Notify_intLineRegistered)
                  c3034980    00000040     rts6740_elf.lib : vec_newdel.obj (.text:_Z10free_arrayPvjjPFYvS_Ei)
                  c30349c0    00000040     localprotect.oe674 (.text:_ZN10COMPARETABC1Ev)
                  c3034a00    00000040     localprotect.oe674 (.text:_ZN10DelayStartC1Ev)
                  c3034a40    00000040     localprotect.oe674 (.text:_ZN10HIGHANALOG6ConfigE8NODEDATA)
                  c3034a80    00000040     localprotect.oe674 (.text:_ZN10HIGHANALOGC1Ev)
                  c3034ac0    00000040     localprotect.oe674 (.text:_ZN10StopConter6ConfigE8NODEDATA)
                  c3034b00    00000040     localprotect.oe674 (.text:_ZN10StopConterC1Ev)
                  c3034b40    00000040     localprotect.oe674 (.text:_ZN11ConterSleep6ConfigE8NODEDATA)
                  c3034b80    00000040     localprotect.oe674 (.text:_ZN11ConterSleepC1Ev)
                  c3034bc0    00000040     fa.oe674 (.text:_ZN11HighCurrent7HighFunEff)
                  c3034c00    00000040     localprotect.oe674 (.text:_ZN11StartConterC1Ev)
                  c3034c40    00000040     localprotect.oe674 (.text:_ZN12ANALOGSTEADYC1Ev)
                  c3034c80    00000040     localprotect.oe674 (.text:_ZN12ConterRuning6ConfigE8NODEDATA)
                  c3034cc0    00000040     localprotect.oe674 (.text:_ZN12ConterRuningC1Ev)
                  c3034d00    00000040     fa.oe674 (.text:_ZN12CurrentCheck10ReadSoeIRFEv)
                  c3034d40    00000040     localprotect.oe674 (.text:_ZN12LOWANALOGTABC1Ev)
                  c3034d80    00000040     localprotect.oe674 (.text:_ZN12LocalProtectD1Ev)
                  c3034dc0    00000040     localprotect.oe674 (.text:_ZN13ConterReached6ConfigE8NODEDATA)
                  c3034e00    00000040     localprotect.oe674 (.text:_ZN13ConterReachedC1Ev)
                  c3034e40    00000040     localprotect.oe674 (.text:_ZN13DelayStartTABC1Ev)
                  c3034e80    00000040     localprotect.oe674 (.text:_ZN13HIGHANALOGTABC1Ev)
                  c3034ec0    00000040     localprotect.oe674 (.text:_ZN13StopConterTABC1Ev)
                  c3034f00    00000040     localprotect.oe674 (.text:_ZN14ConterSleepTABC1Ev)
                  c3034f40    00000040     localprotect.oe674 (.text:_ZN14StartConterTABC1Ev)
                  c3034f80    00000040     localprotect.oe674 (.text:_ZN15ANALOGSTEADYTABC1Ev)
                  c3034fc0    00000040     fa.oe674 (.text:_ZN15ConterDelayPlus10StopConterEP9setmstime)
                  c3035000    00000040     localprotect.oe674 (.text:_ZN15ConterRuningTABC1Ev)
                  c3035040    00000040     localprotect.oe674 (.text:_ZN15DelayStartDelayC1Ev)
                  c3035080    00000040     localprotect.oe674 (.text:_ZN16ConterReachedTABC1Ev)
                  c30350c0    00000040     localprotect.oe674 (.text:_ZN18DelayStartDelayTABC1Ev)
                  c3035100    00000040     localprotect.oe674 (.text:_ZN2OR3funEv)
                  c3035140    00000040     localprotect.oe674 (.text:_ZN2OR6ConfigE8NODEDATA)
                  c3035180    00000040     localprotect.oe674 (.text:_ZN2ORC1Ev)
                  c30351c0    00000040     localprotect.oe674 (.text:_ZN3AND3funEv)
                  c3035200    00000040     localprotect.oe674 (.text:_ZN3AND6ConfigE8NODEDATA)
                  c3035240    00000040     localprotect.oe674 (.text:_ZN3ANDC1Ev)
                  c3035280    00000040     localprotect.oe674 (.text:_ZN3NOT3funEv)
                  c30352c0    00000040     localprotect.oe674 (.text:_ZN3NOT6ConfigE8NODEDATA)
                  c3035300    00000040     localprotect.oe674 (.text:_ZN3NOTC1Ev)
                  c3035340    00000040     localprotect.oe674 (.text:_ZN3XOR6ConfigE8NODEDATA)
                  c3035380    00000040     localprotect.oe674 (.text:_ZN3XORC1Ev)
                  c30353c0    00000040     localprotect.oe674 (.text:_ZN4NAND3funEv)
                  c3035400    00000040     localprotect.oe674 (.text:_ZN4NAND6ConfigE8NODEDATA)
                  c3035440    00000040     localprotect.oe674 (.text:_ZN4NANDC1Ev)
                  c3035480    00000040     localprotect.oe674 (.text:_ZN4XNOR6ConfigE8NODEDATA)
                  c30354c0    00000040     localprotect.oe674 (.text:_ZN4XNORC1Ev)
                  c3035500    00000040     localprotect.oe674 (.text:_ZN5EQUAL3funEv)
                  c3035540    00000040     localprotect.oe674 (.text:_ZN5EQUAL6ConfigE8NODEDATA)
                  c3035580    00000040     localprotect.oe674 (.text:_ZN5EQUALC1Ev)
                  c30355c0    00000040     localprotect.oe674 (.text:_ZN5ORTABC1Ev)
                  c3035600    00000040     localprotect.oe674 (.text:_ZN5PulseC1Ev)
                  c3035640    00000040     localprotect.oe674 (.text:_ZN6ANDTABC1Ev)
                  c3035680    00000040     localprotect.oe674 (.text:_ZN6FAPARAC1Ev)
                  c30356c0    00000040     localprotect.oe674 (.text:_ZN6NOTTABC1Ev)
                  c3035700    00000040     localprotect.oe674 (.text:_ZN6STEADY6ConfigE8NODEDATA)
                  c3035740    00000040     localprotect.oe674 (.text:_ZN6STEADYC1Ev)
                  c3035780    00000040     localprotect.oe674 (.text:_ZN6XORTABC1Ev)
                  c30357c0    00000040     message.oe674 (.text:_ZN7BaseApp6GetMsgE11MessageDataI12BaseDataTypeE)
                  c3035800    00000040     message.oe674 (.text:_ZN7BaseAppC1Ev)
                  c3035840    00000040     localprotect.oe674 (.text:_ZN7COMPAREC1Ev)
                  c3035880    00000040     localprotect.oe674 (.text:_ZN7NANDTABC1Ev)
                  c30358c0    00000040     localprotect.oe674 (.text:_ZN7NewToolI8BaseToolE3funEv)
                  c3035900    00000040     localprotect.oe674 (.text:_ZN7NewToolI8BaseToolEC1Ev)
                  c3035940    00000040     localprotect.oe674 (.text:_ZN7XNORTABC1Ev)
                  c3035980    00000040     localprotect.oe674 (.text:_ZN8EQUALTABC1Ev)
                  c30359c0    00000040     localprotect.oe674 (.text:_ZN8PulseTABC1Ev)
                  c3035a00    00000040     scada.oe674 (.text:_ZN9DataType4C1Ev)
                  c3035a40    00000040     localprotect.oe674 (.text:_ZN9LOWANALOG6ConfigE8NODEDATA)
                  c3035a80    00000040     localprotect.oe674 (.text:_ZN9LOWANALOGC1Ev)
                  c3035ac0    00000040     localprotect.oe674 (.text:_ZN9STEADYTABC1Ev)
                  c3035b00    00000040     rts6740_elf.lib : frcmpyd_div.obj (.text:__c6xabi_frcmpyd_div)
                  c3035b40    00000040                     : isinf.obj (.text:__c6xabi_isinf)
                  c3035b80    00000040                     : _printfi.obj (.text:__c6xabi_isnan)
                  c3035bc0    00000040                     : llshift.obj (.text:__c6xabi_llshru)
                  c3035c00    00000040                     : vec_newdel.obj (.text:__cxa_vec_dtor)
                  c3035c40    00000040                     : strasg.obj (.text:__strasgi_64plus)
                  c3035c80    00000040                     : args_main.obj (.text:_args_main)
                  c3035cc0    00000040     sysbios.lib : c62_TaskSupport_asm.obj (.text:_ti_sysbios_family_c62_TaskSupport_buildTaskStack)
                  c3035d00    00000040                 : c64p_Hwi_asm_switch.obj (.text:_ti_sysbios_family_xxx_Hwi_switchToIsrStack)
                  c3035d40    00000040     Dsp_pe674.oe674 (.text:free)
                  c3035d80    00000040     rts6740_elf.lib : abs.obj (.text:llabs)
                  c3035dc0    00000040     sysbios.lib : BIOS.obj (.text:rtsLock$0)
                  c3035e00    00000040     ipc.lib : Ipc.obj (.text:ti_sdo_ipc_MessageQ_registerTransport__F)
                  c3035e40    00000040             : Ipc.obj (.text:ti_sdo_ipc_MessageQ_unregisterTransport__F)
                  c3035e80    00000040             : Ipc.obj (.text:ti_sdo_ipc_Notify_exec__F)
                  c3035ec0    00000040             : Ipc.obj (.text:ti_sdo_ipc_SharedRegion_resetInternalFields__F)
                  c3035f00    00000040             : Ipc.obj (.text:ti_sdo_ipc_family_da830_InterruptDsp_intClear__E)
                  c3035f40    00000040             : Ipc.obj (.text:ti_sdo_ipc_family_da830_InterruptDsp_intSend__E)
                  c3035f80    00000040             : Ipc.obj (.text:ti_sdo_ipc_nsremote_NameServerRemoteNotify_sharedMemReq__E)
                  c3035fc0    00000040             : Ipc.obj (.text:ti_sdo_utils_List_get__E)
                  c3036000    00000040             : Ipc.obj (.text:ti_sdo_utils_List_putHead__E)
                  c3036040    00000040             : Ipc.obj (.text:ti_sdo_utils_List_put__E)
                  c3036080    00000040     Dsp_pe674.oe674 (.text:ti_sdo_utils_NameServer_Module__startupDone__F)
                  c30360c0    00000040     Dsp_pe674.oe674 (.text:ti_sdo_utils_NameServer_Object__get__S)
                  c3036100    00000040     ipc.lib : Ipc.obj (.text:ti_sdo_utils_NameServer_registerRemoteDriver__E)
                  c3036140    00000040             : Ipc.obj (.text:ti_sdo_utils_NameServer_unregisterRemoteDriver__E)
                  c3036180    00000040     Dsp_pe674.oe674 (.text:ti_sysbios_BIOS_startFunc__I)
                  c30361c0    00000040     Dsp_pe674.oe674 (.text:ti_sysbios_family_c64p_Hwi_Module__startupDone__F)
                  c3036200    00000040     sysbios.lib : BIOS.obj (.text:ti_sysbios_family_c64p_Hwi_disableInterrupt__E)
                  c3036240    00000040                 : BIOS.obj (.text:ti_sysbios_family_c64p_Hwi_enableInterrupt__E)
                  c3036280    00000040                 : BIOS.obj (.text:ti_sysbios_gates_GateAll_leave__E)
                  c30362c0    00000040                 : BIOS.obj (.text:ti_sysbios_gates_GateMutexPri_Instance_init__F)
                  c3036300    00000040     Dsp_pe674.oe674 (.text:ti_sysbios_gates_GateMutexPri_Object__destruct__S)
                  c3036340    00000040     sysbios.lib : BIOS.obj (.text:ti_sysbios_gates_GateMutex_leave__E)
                  c3036380    00000040                 : BIOS.obj (.text:ti_sysbios_hal_Hwi_Instance_finalize__F)
                  c30363c0    00000040     Dsp_pe674.oe674 (.text:ti_sysbios_hal_Timer_Module__startupDone__F)
                  c3036400    00000040     Dsp_pe674.oe674 (.text:ti_sysbios_heaps_HeapMem_Object__get__S)
                  c3036440    00000040     sysbios.lib : BIOS.obj (.text:ti_sysbios_knl_Clock_Instance_finalize__F)
                  c3036480    00000040     Dsp_pe674.oe674 (.text:ti_sysbios_knl_Clock_Object__destruct__S)
                  c30364c0    00000040     Dsp_pe674.oe674 (.text:ti_sysbios_knl_Semaphore_Object__destruct__S)
                  c3036500    00000040     Dsp_pe674.oe674 (.text:ti_sysbios_knl_Swi_Object__destruct__S)
                  c3036540    00000040     Dsp_pe674.oe674 (.text:ti_sysbios_knl_Swi_Object__get__S)
                  c3036580    00000040     Dsp_pe674.oe674 (.text:ti_sysbios_knl_Task_Object__get__S)
                  c30365c0    00000040     sysbios.lib : BIOS.obj (.text:ti_sysbios_knl_Task_sleepTimeout__I)
                  c3036600    00000040     Dsp_pe674.oe674 (.text:ti_sysbios_timers_timer64_Timer_Module__startupDone__F)
                  c3036640    00000040     sysbios.lib : BIOS.obj (.text:ti_sysbios_xdcruntime_GateThreadSupport_Instance_init__F)
                  c3036680    00000040     ti.syslink.ipc.rtos.ae674 : Syslink.oe674 (.text:ti_syslink_ipc_rtos_Syslink_detach)
                  c30366c0    00000040     ti.targets.rts6000.ae674 : Error.oe674 (.text:xdc_runtime_Error_check__F)
                  c3036700    00000040                              : Error.oe674 (.text:xdc_runtime_Error_init__F)
                  c3036740    00000040                              : LoggerBuf.oe674 (.text:xdc_runtime_LoggerBuf_Instance_finalize__F)
                  c3036780    00000040     Dsp_pe674.oe674 (.text:xdc_runtime_LoggerBuf_Object__get__S)
                  c30367c0    00000040     ti.targets.rts6000.ae674 : LoggerBuf.oe674 (.text:xdc_runtime_LoggerBuf_write0__F)
                  c3036800    00000040     Dsp_pe674.oe674 (.text:xdc_runtime_LoggerBuf_write8__E)
                  c3036840    00000040     ti.targets.rts6000.ae674 : Memory.oe674 (.text:xdc_runtime_Memory_free__F)
                  c3036880    00000040                              : Registry.oe674 (.text:xdc_runtime_Registry_findById__F)
                  c30368c0    00000040                              : System.oe674 (.text:xdc_runtime_System_abort__F)
                  c3036900    00000040     Dsp_pe674.oe674 (.text:xdc_runtime_System_aprintf__E)
                  c3036940    00000040     Dsp_pe674.oe674 (.text:xdc_runtime_System_printf__E)
                  c3036980    00000040     ti.targets.rts6000.ae674 : Text.oe674 (.text:xdc_runtime_Text_matchRope__F)
                  c30369c0    00000040                              : Text.oe674 (.text:xdc_runtime_Text_ropeText__F)
                  c3036a00    00000040                              : GateThread.oe674 (.text:xdc_runtime_knl_GateThread_Instance_finalize__F)
                  c3036a40    00000040                              : GateThread.oe674 (.text:xdc_runtime_knl_GateThread_Instance_init__F)
                  c3036a80    00000038     expsp.oe674 (.text)
                  c3036ab8    00000008     --HOLE-- [fill = 0]

.fardata.1 
*          0    c3036ab8    00000008     
                  c3036ab8    00000008     rts6740_elf.lib : _lock.obj (.fardata)

.text.2    0    c3036ac0    00002f60     
                  c3036ac0    00000020     ipc.lib : Ipc.obj (.text:GateMP_enter)
                  c3036ae0    00000020             : Ipc.obj (.text:GateMP_leave)
                  c3036b00    00000020             : Ipc.obj (.text:NameServer_addUInt32)
                  c3036b20    00000020             : Ipc.obj (.text:NameServer_removeEntry)
                  c3036b40    00000020     rts6740_elf.lib : newhandler.obj (.text:_Z21__default_new_handlerv)
                  c3036b60    00000020     data.oe674 (.text:_ZN10PassWdParaC1Ev)
                  c3036b80    00000020     data.oe674 (.text:_ZN10Pro101ParaC1Ev)
                  c3036ba0    00000020     data.oe674 (.text:_ZN10Pro104ParaC1Ev)
                  c3036bc0    00000020     fa.oe674 (.text:_ZN10ProtectSetC1Ev)
                  c3036be0    00000020     fa.oe674 (.text:_ZN10RecloseSetC1Ev)
                  c3036c00    00000020     rts6740_elf.lib : typeinfo_.obj (.text:_ZN10__cxxabiv117__class_type_infoD0Ev)
                  c3036c20    00000020                     : typeinfo_.obj (.text:_ZN10__cxxabiv117__class_type_infoD1Ev)
                  c3036c40    00000020                     : typeinfo_.obj (.text:_ZN10__cxxabiv120__si_class_type_infoD0Ev)
                  c3036c60    00000020                     : typeinfo_.obj (.text:_ZN10__cxxabiv120__si_class_type_infoD1Ev)
                  c3036c80    00000020     data.oe674 (.text:_ZN11ComBaseParaC1Ev)
                  c3036ca0    00000020     scada.oe674 (.text:_ZN11DeadAreaSetC1Ev)
                  c3036cc0    00000020     scada.oe674 (.text:_ZN11UserPortSetC1Ev)
                  c3036ce0    00000020     yx.oe674 (.text:_ZN12DbDigitInSetC1Ev)
                  c3036d00    00000020     data.oe674 (.text:_ZN12WirelessParaC1Ev)
                  c3036d20    00000020     fa.oe674 (.text:_ZN13FaDevotionSetC1Ev)
                  c3036d40    00000020     fa.oe674 (.text:_ZN13ProtectDirSetC1Ev)
                  c3036d60    00000020     localprotect.oe674 (.text:_ZN14FaIsolationSetC1Ev)
                  c3036d80    00000020     localprotect.oe674 (.text:_ZN15FaConnectionSetC1Ev)
                  c3036da0    00000020     data.oe674 (.text:_ZN17HisDataDefineParaC1Ev)
                  c3036dc0    00000020     scada.oe674 (.text:_ZN19UserRealDataDefParaC1Ev)
                  c3036de0    00000020     fa.oe674 (.text:_ZN2FAD1Ev)
                  c3036e00    00000020     scada.oe674 (.text:_ZN5Scada8WriteCfgEv)
                  c3036e20    00000020     scada.oe674 (.text:_ZN5ScadaD1Ev)
                  c3036e40    00000020     message.oe674 (.text:_ZN5Stack6GetNumEv)
                  c3036e60    00000020     message.oe674 (.text:_ZN7BaseApp3RunEPv)
                  c3036e80    00000020     message.oe674 (.text:_ZN7BaseApp4InitEv)
                  c3036ea0    00000020     message.oe674 (.text:_ZN7BaseApp7ReadCfgEv)
                  c3036ec0    00000020     message.oe674 (.text:_ZN7BaseApp8WriteCfgEv)
                  c3036ee0    00000020     message.oe674 (.text:_ZN7BaseAppC2Ev)
                  c3036f00    00000020     message.oe674 (.text:_ZN7BaseAppD1Ev)
                  c3036f20    00000020     message.oe674 (.text:_ZN7BaseAppD2Ev)
                  c3036f40    00000020     data.oe674 (.text:_ZN7EthParaC1Ev)
                  c3036f60    00000020     localprotect.oe674 (.text:_ZN7NewToolI8BaseToolED1Ev)
                  c3036f80    00000020     localprotect.oe674 (.text:_ZN8BaseTool3funEv)
                  c3036fa0    00000020     localprotect.oe674 (.text:_ZN8BaseTool6ConfigE8NODEDATA)
                  c3036fc0    00000020     localprotect.oe674 (.text:_ZN8BaseToolC1Ev)
                  c3036fe0    00000020     localprotect.oe674 (.text:_ZN8BaseToolC2Ev)
                  c3037000    00000020     localprotect.oe674 (.text:_ZN8FaFunSetC1Ev)
                  c3037020    00000020     scada.oe674 (.text:_ZN8PowerWayC1Ev)
                  c3037040    00000020     data.oe674 (.text:_ZN8UartParaC1Ev)
                  c3037060    00000020     yx.oe674 (.text:_ZN8WarnParaC1Ev)
                  c3037080    00000020     scada.oe674 (.text:_ZN8YCMsgSetC1Ev)
                  c30370a0    00000020     scada.oe674 (.text:_ZN8YKMsgSetC1Ev)
                  c30370c0    00000020     yx.oe674 (.text:_ZN8YXMsgSetC1Ev)
                  c30370e0    00000020     scada.oe674 (.text:_ZN9DataType1C1Ev)
                  c3037100    00000020     scada.oe674 (.text:_ZN9DataType2C1Ev)
                  c3037120    00000020     yx.oe674 (.text:_ZN9DataType3C1Ev)
                  c3037140    00000020     localprotect.oe674 (.text:_ZN9FaCommSetC1Ev)
                  c3037160    00000020     rts6740_elf.lib : array_del.obj (.text:_ZdaPv)
                  c3037180    00000020                     : delete.obj (.text:_ZdlPv)
                  c30371a0    00000020                     : array_new.obj (.text:_Znaj)
                  c30371c0    00000020                     : negll.obj (.text:__c6xabi_negll)
                  c30371e0    00000020                     : trunc.obj (.text:__c6xabi_trunc)
                  c3037200    00000020                     : dtor_list.obj (.text:__cxa_atexit)
                  c3037220    00000020                     : dtor_list.obj (.text:__cxa_ia64_exit)
                  c3037240    00000020                     : memzero.obj (.text:__memzero)
                  c3037260    00000020     ti.targets.rts6000.ae674 : xdc_noinit.oe674 (.text:__xdc__init)
                  c3037280    00000020     rts6740_elf.lib : _lock.obj (.text:_nop)
                  c30372a0    00000020                     : fprintf.obj (.text:_outc)
                  c30372c0    00000020                     : printf.obj (.text:_outc)
                  c30372e0    00000020                     : fprintf.obj (.text:_outs)
                  c3037300    00000020                     : printf.obj (.text:_outs)
                  c3037320    00000020                     : _lock.obj (.text:_register_lock)
                  c3037340    00000020                     : _lock.obj (.text:_register_unlock)
                  c3037360    00000020     sysbios.lib : c62_TaskSupport_asm.obj (.text:_ti_sysbios_family_c62_TaskSupport_glue)
                  c3037380    00000020                 : c64p_Hwi_asm_switch.obj (.text:_ti_sysbios_family_xxx_Hwi_switchToTaskStack)
                  c30373a0    00000020     rts6740_elf.lib : exit.obj (.text:abort)
                  c30373c0    00000020                     : dtor_list.obj (.text:atexit)
                  c30373e0    00000020     sysbios.lib : BIOS.obj (.text:nullFunc$0)
                  c3037400    00000020     rts6740_elf.lib : remove.obj (.text:remove)
                  c3037420    00000020     Dsp_pe674.oe674 (.text:ti_sdo_ipc_GateMP_Params__init__S)
                  c3037440    00000020     Dsp_pe674.oe674 (.text:ti_sdo_ipc_GateMP_RemoteCustom1Proxy_Object__create__S)
                  c3037460    00000020     Dsp_pe674.oe674 (.text:ti_sdo_ipc_GateMP_RemoteCustom1Proxy_Object__delete__S)
                  c3037480    00000020     Dsp_pe674.oe674 (.text:ti_sdo_ipc_GateMP_RemoteCustom1Proxy_Params__init__S)
                  c30374a0    00000020     Dsp_pe674.oe674 (.text:ti_sdo_ipc_GateMP_RemoteCustom1Proxy_Proxy__abstract__S)
                  c30374c0    00000020     Dsp_pe674.oe674 (.text:ti_sdo_ipc_GateMP_RemoteCustom1Proxy_Proxy__delegate__S)
                  c30374e0    00000020     Dsp_pe674.oe674 (.text:ti_sdo_ipc_GateMP_RemoteCustom1Proxy_getReservedMask__E)
                  c3037500    00000020     Dsp_pe674.oe674 (.text:ti_sdo_ipc_GateMP_RemoteCustom1Proxy_sharedMemReq__E)
                  c3037520    00000020     Dsp_pe674.oe674 (.text:ti_sdo_ipc_GateMP_RemoteCustom2Proxy_Object__create__S)
                  c3037540    00000020     Dsp_pe674.oe674 (.text:ti_sdo_ipc_GateMP_RemoteCustom2Proxy_Object__delete__S)
                  c3037560    00000020     Dsp_pe674.oe674 (.text:ti_sdo_ipc_GateMP_RemoteCustom2Proxy_Params__init__S)
                  c3037580    00000020     Dsp_pe674.oe674 (.text:ti_sdo_ipc_GateMP_RemoteCustom2Proxy_Proxy__abstract__S)
                  c30375a0    00000020     Dsp_pe674.oe674 (.text:ti_sdo_ipc_GateMP_RemoteCustom2Proxy_Proxy__delegate__S)
                  c30375c0    00000020     Dsp_pe674.oe674 (.text:ti_sdo_ipc_GateMP_RemoteCustom2Proxy_getReservedMask__E)
                  c30375e0    00000020     Dsp_pe674.oe674 (.text:ti_sdo_ipc_GateMP_RemoteCustom2Proxy_sharedMemReq__E)
                  c3037600    00000020     Dsp_pe674.oe674 (.text:ti_sdo_ipc_GateMP_RemoteSystemProxy_Object__create__S)
                  c3037620    00000020     Dsp_pe674.oe674 (.text:ti_sdo_ipc_GateMP_RemoteSystemProxy_Object__delete__S)
                  c3037640    00000020     Dsp_pe674.oe674 (.text:ti_sdo_ipc_GateMP_RemoteSystemProxy_Params__init__S)
                  c3037660    00000020     Dsp_pe674.oe674 (.text:ti_sdo_ipc_GateMP_RemoteSystemProxy_Proxy__abstract__S)
                  c3037680    00000020     Dsp_pe674.oe674 (.text:ti_sdo_ipc_GateMP_RemoteSystemProxy_Proxy__delegate__S)
                  c30376a0    00000020     Dsp_pe674.oe674 (.text:ti_sdo_ipc_GateMP_RemoteSystemProxy_getReservedMask__E)
                  c30376c0    00000020     Dsp_pe674.oe674 (.text:ti_sdo_ipc_GateMP_RemoteSystemProxy_sharedMemReq__E)
                  c30376e0    00000020     Dsp_pe674.oe674 (.text:ti_sdo_ipc_GateMP_attach__E)
                  c3037700    00000020     Dsp_pe674.oe674 (.text:ti_sdo_ipc_GateMP_getRegion0ReservedSize__E)
                  c3037720    00000020     Dsp_pe674.oe674 (.text:ti_sdo_ipc_GateMP_getSharedAddr__E)
                  c3037740    00000020     ipc.lib : Ipc.obj (.text:ti_sdo_ipc_GateMP_getSharedAddr__F)
                  c3037760    00000020     Dsp_pe674.oe674 (.text:ti_sdo_ipc_GateMP_start__E)
                  c3037780    00000020     Dsp_pe674.oe674 (.text:ti_sdo_ipc_ListMP_Params__init__S)
                  c30377a0    00000020     Dsp_pe674.oe674 (.text:ti_sdo_ipc_MessageQ_Module_startup__E)
                  c30377c0    00000020     Dsp_pe674.oe674 (.text:ti_sdo_ipc_MessageQ_Object__get__S)
                  c30377e0    00000020     Dsp_pe674.oe674 (.text:ti_sdo_ipc_MessageQ_SetupTransportProxy_attach__E)
                  c3037800    00000020     Dsp_pe674.oe674 (.text:ti_sdo_ipc_MessageQ_SetupTransportProxy_detach__E)
                  c3037820    00000020     Dsp_pe674.oe674 (.text:ti_sdo_ipc_MessageQ_SetupTransportProxy_isRegistered__E)
                  c3037840    00000020     Dsp_pe674.oe674 (.text:ti_sdo_ipc_MessageQ_SetupTransportProxy_sharedMemReq__E)
                  c3037860    00000020     Dsp_pe674.oe674 (.text:ti_sdo_ipc_MessageQ_registerTransport__E)
                  c3037880    00000020     Dsp_pe674.oe674 (.text:ti_sdo_ipc_MessageQ_unregisterTransport__E)
                  c30378a0    00000020     Dsp_pe674.oe674 (.text:ti_sdo_ipc_Notify_Module_GateProxy_enter__E)
                  c30378c0    00000020     Dsp_pe674.oe674 (.text:ti_sdo_ipc_Notify_Module_GateProxy_leave__E)
                  c30378e0    00000020     Dsp_pe674.oe674 (.text:ti_sdo_ipc_Notify_Module_startup__E)
                  c3037900    00000020     Dsp_pe674.oe674 (.text:ti_sdo_ipc_Notify_SetupProxy_attach__E)
                  c3037920    00000020     Dsp_pe674.oe674 (.text:ti_sdo_ipc_Notify_SetupProxy_numIntLines__E)
                  c3037940    00000020     Dsp_pe674.oe674 (.text:ti_sdo_ipc_Notify_SetupProxy_sharedMemReq__E)
                  c3037960    00000020     Dsp_pe674.oe674 (.text:ti_sdo_ipc_Notify_detach__E)
                  c3037980    00000020     Dsp_pe674.oe674 (.text:ti_sdo_ipc_Notify_exec__E)
                  c30379a0    00000020     Dsp_pe674.oe674 (.text:ti_sdo_ipc_SharedRegion_attach__E)
                  c30379c0    00000020     Dsp_pe674.oe674 (.text:ti_sdo_ipc_SharedRegion_clearReservedMemory__E)
                  c30379e0    00000020     Dsp_pe674.oe674 (.text:ti_sdo_ipc_SharedRegion_reserveMemory__E)
                  c3037a00    00000020     Dsp_pe674.oe674 (.text:ti_sdo_ipc_SharedRegion_resetInternalFields__E)
                  c3037a20    00000020     Dsp_pe674.oe674 (.text:ti_sdo_ipc_SharedRegion_start__E)
                  c3037a40    00000020     ipc.lib : Ipc.obj (.text:ti_sdo_ipc_family_da830_InterruptDsp_intDisable__E)
                  c3037a60    00000020             : Ipc.obj (.text:ti_sdo_ipc_family_da830_InterruptDsp_intEnable__E)
                  c3037a80    00000020             : Ipc.obj (.text:ti_sdo_ipc_family_da830_InterruptDsp_intUnregister__E)
                  c3037aa0    00000020             : Ipc.obj (.text:ti_sdo_ipc_family_da830_NotifySetup_numIntLines__E)
                  c3037ac0    00000020             : Ipc.obj (.text:ti_sdo_ipc_gates_GateMPSupportNull_Instance_init__F)
                  c3037ae0    00000020     Dsp_pe674.oe674 (.text:ti_sdo_ipc_gates_GateMPSupportNull_Params__init__S)
                  c3037b00    00000020     ipc.lib : Ipc.obj (.text:ti_sdo_ipc_gates_GateMPSupportNull_enter__E)
                  c3037b20    00000020             : Ipc.obj (.text:ti_sdo_ipc_gates_GateMPSupportNull_getReservedMask__E)
                  c3037b40    00000020             : Ipc.obj (.text:ti_sdo_ipc_gates_GateMPSupportNull_leave__E)
                  c3037b60    00000020     Dsp_pe674.oe674 (.text:ti_sdo_ipc_gates_GateMPSupportNull_query__E)
                  c3037b80    00000020     ipc.lib : Ipc.obj (.text:ti_sdo_ipc_gates_GateMPSupportNull_query__F)
                  c3037ba0    00000020             : Ipc.obj (.text:ti_sdo_ipc_gates_GateMPSupportNull_sharedMemReq__E)
                  c3037bc0    00000020     Dsp_pe674.oe674 (.text:ti_sdo_ipc_gates_GatePeterson_Params__init__S)
                  c3037be0    00000020     ipc.lib : Ipc.obj (.text:ti_sdo_ipc_gates_GatePeterson_getReservedMask__E)
                  c3037c00    00000020     Dsp_pe674.oe674 (.text:ti_sdo_ipc_gates_GatePeterson_query__E)
                  c3037c20    00000020     ipc.lib : Ipc.obj (.text:ti_sdo_ipc_gates_GatePeterson_query__F)
                  c3037c40    00000020     Dsp_pe674.oe674 (.text:ti_sdo_ipc_heaps_HeapMemMP_Params__init__S)
                  c3037c60    00000020     Dsp_pe674.oe674 (.text:ti_sdo_ipc_heaps_HeapMemMP_isBlocking__E)
                  c3037c80    00000020     ipc.lib : Ipc.obj (.text:ti_sdo_ipc_heaps_HeapMemMP_isBlocking__F)
                  c3037ca0    00000020     Dsp_pe674.oe674 (.text:ti_sdo_ipc_notifyDrivers_NotifyDriverShm_InterruptProxy_intClear__E)
                  c3037cc0    00000020     Dsp_pe674.oe674 (.text:ti_sdo_ipc_notifyDrivers_NotifyDriverShm_InterruptProxy_intDisable__E)
                  c3037ce0    00000020     Dsp_pe674.oe674 (.text:ti_sdo_ipc_notifyDrivers_NotifyDriverShm_InterruptProxy_intEnable__E)
                  c3037d00    00000020     Dsp_pe674.oe674 (.text:ti_sdo_ipc_notifyDrivers_NotifyDriverShm_InterruptProxy_intRegister__E)
                  c3037d20    00000020     Dsp_pe674.oe674 (.text:ti_sdo_ipc_notifyDrivers_NotifyDriverShm_InterruptProxy_intSend__E)
                  c3037d40    00000020     Dsp_pe674.oe674 (.text:ti_sdo_ipc_notifyDrivers_NotifyDriverShm_InterruptProxy_intUnregister__E)
                  c3037d60    00000020     Dsp_pe674.oe674 (.text:ti_sdo_ipc_notifyDrivers_NotifyDriverShm_Params__init__S)
                  c3037d80    00000020     ipc.lib : Ipc.obj (.text:ti_sdo_ipc_notifyDrivers_NotifyDriverShm_disable__E)
                  c3037da0    00000020             : Ipc.obj (.text:ti_sdo_ipc_notifyDrivers_NotifyDriverShm_enable__E)
                  c3037dc0    00000020     Dsp_pe674.oe674 (.text:ti_sdo_ipc_notifyDrivers_NotifyDriverShm_sharedMemReq__E)
                  c3037de0    00000020     Dsp_pe674.oe674 (.text:ti_sdo_ipc_nsremote_NameServerRemoteNotify_Object__first__S)
                  c3037e00    00000020     Dsp_pe674.oe674 (.text:ti_sdo_ipc_nsremote_NameServerRemoteNotify_Object__next__S)
                  c3037e20    00000020     Dsp_pe674.oe674 (.text:ti_sdo_ipc_nsremote_NameServerRemoteNotify_Params__init__S)
                  c3037e40    00000020     ipc.lib : Ipc.obj (.text:ti_sdo_ipc_nsremote_NameServerRemoteNotify_cbFxn__I)
                  c3037e60    00000020     Dsp_pe674.oe674 (.text:ti_sdo_ipc_nsremote_NameServerRemoteNotify_get__E)
                  c3037e80    00000020     ipc.lib : Ipc.obj (.text:ti_sdo_ipc_transports_TransportShmSetup_isRegistered__E)
                  c3037ea0    00000020     Dsp_pe674.oe674 (.text:ti_sdo_ipc_transports_TransportShm_Params__init__S)
                  c3037ec0    00000020     Dsp_pe674.oe674 (.text:ti_sdo_ipc_transports_TransportShm_close__E)
                  c3037ee0    00000020     ipc.lib : Ipc.obj (.text:ti_sdo_ipc_transports_TransportShm_close__F)
                  c3037f00    00000020             : Ipc.obj (.text:ti_sdo_ipc_transports_TransportShm_control__E)
                  c3037f20    00000020             : Ipc.obj (.text:ti_sdo_ipc_transports_TransportShm_getStatus__E)
                  c3037f40    00000020             : Ipc.obj (.text:ti_sdo_ipc_transports_TransportShm_notifyFxn__I)
                  c3037f60    00000020     Dsp_pe674.oe674 (.text:ti_sdo_ipc_transports_TransportShm_openByAddr__E)
                  c3037f80    00000020     Dsp_pe674.oe674 (.text:ti_sdo_ipc_transports_TransportShm_setErrFxn__E)
                  c3037fa0    00000020     ipc.lib : Ipc.obj (.text:ti_sdo_ipc_transports_TransportShm_setErrFxn__F)
                  c3037fc0    00000020     Dsp_pe674.oe674 (.text:ti_sdo_ipc_transports_TransportShm_sharedMemReq__E)
                  c3037fe0    00000020     ipc.lib : Ipc.obj (.text:ti_sdo_utils_List_Instance_init__F)
                  c3038000    00000020     Dsp_pe674.oe674 (.text:ti_sdo_utils_List_Object__destruct__S)
                  c3038020    00000020     Dsp_pe674.oe674 (.text:ti_sdo_utils_List_Object__get__S)
                  c3038040    00000020     Dsp_pe674.oe674 (.text:ti_sdo_utils_MultiProc_getClusterId__E)
                  c3038060    00000020     ipc.lib : Ipc.obj (.text:ti_sdo_utils_MultiProc_getClusterId__F)
                  c3038080    00000020     Dsp_pe674.oe674 (.text:ti_sdo_utils_NameServer_Module__startupDone__S)
                  c30380a0    00000020     Dsp_pe674.oe674 (.text:ti_sdo_utils_NameServer_Module_startup__E)
                  c30380c0    00000020     Dsp_pe674.oe674 (.text:ti_sdo_utils_NameServer_Object__first__S)
                  c30380e0    00000020     Dsp_pe674.oe674 (.text:ti_sdo_utils_NameServer_Object__next__S)
                  c3038100    00000020     Dsp_pe674.oe674 (.text:ti_sdo_utils_NameServer_SetupProxy_attach__E)
                  c3038120    00000020     Dsp_pe674.oe674 (.text:ti_sdo_utils_NameServer_SetupProxy_detach__E)
                  c3038140    00000020     Dsp_pe674.oe674 (.text:ti_sdo_utils_NameServer_SetupProxy_sharedMemReq__E)
                  c3038160    00000020     Dsp_pe674.oe674 (.text:ti_sysbios_BIOS_RtsGateProxy_enter__E)
                  c3038180    00000020     Dsp_pe674.oe674 (.text:ti_sysbios_BIOS_RtsGateProxy_leave__E)
                  c30381a0    00000020     sysbios.lib : BIOS.obj (.text:ti_sysbios_BIOS_getThreadType__E)
                  c30381c0    00000020                 : BIOS.obj (.text:ti_sysbios_BIOS_setThreadType__E)
                  c30381e0    00000020     Dsp_pe674.oe674 (.text:ti_sysbios_family_c62_TaskSupport_Module__startupDone__S)
                  c3038200    00000020     sysbios.lib : BIOS.obj (.text:ti_sysbios_family_c62_TaskSupport_checkStack__E)
                  c3038220    00000020                 : BIOS.obj (.text:ti_sysbios_family_c62_TaskSupport_getStackAlignment__E)
                  c3038240    00000020     Dsp_pe674.oe674 (.text:ti_sysbios_family_c64p_Cache_Module_startup__E)
                  c3038260    00000020     sysbios.lib : BIOS.obj (.text:ti_sysbios_family_c64p_Cache_invL1pAll__E)
                  c3038280    00000020                 : BIOS.obj (.text:ti_sysbios_family_c64p_Cache_inv__E)
                  c30382a0    00000020                 : BIOS.obj (.text:ti_sysbios_family_c64p_Cache_wbInv__E)
                  c30382c0    00000020     Dsp_pe674.oe674 (.text:ti_sysbios_family_c64p_Exception_Module_startup__E)
                  c30382e0    00000020     Dsp_pe674.oe674 (.text:ti_sysbios_family_c64p_Hwi_Module__startupDone__S)
                  c3038300    00000020     Dsp_pe674.oe674 (.text:ti_sysbios_family_c64p_Hwi_Module_startup__E)
                  c3038320    00000020     Dsp_pe674.oe674 (.text:ti_sysbios_family_c64p_Hwi_Params__init__S)
                  c3038340    00000020     sysbios.lib : BIOS.obj (.text:ti_sysbios_family_c64p_Hwi_clearInterrupt__E)
                  c3038360    00000020                 : BIOS.obj (.text:ti_sysbios_family_c64p_Hwi_getHandle__E)
                  c3038380    00000020                 : BIOS.obj (.text:ti_sysbios_family_c64p_Hwi_startup__E)
                  c30383a0    00000020                 : BIOS.obj (.text:ti_sysbios_family_c64p_Hwi_switchFromBootStack__E)
                  c30383c0    00000020                 : BIOS.obj (.text:ti_sysbios_family_c64p_Hwi_unPluggedInterrupt__I)
                  c30383e0    00000020     Dsp_pe674.oe674 (.text:ti_sysbios_family_c64p_TimestampProvider_Module_startup__E)
                  c3038400    00000020     sysbios.lib : BIOS.obj (.text:ti_sysbios_family_c64p_TimestampProvider_Module_startup__F)
                  c3038420    00000020                 : BIOS.obj (.text:ti_sysbios_family_c64p_TimestampProvider_get64__E)
                  c3038440    00000020                 : BIOS.obj (.text:ti_sysbios_gates_GateAll_Instance_init__F)
                  c3038460    00000020     Dsp_pe674.oe674 (.text:ti_sysbios_gates_GateAll_query__E)
                  c3038480    00000020     sysbios.lib : BIOS.obj (.text:ti_sysbios_gates_GateAll_query__F)
                  c30384a0    00000020                 : BIOS.obj (.text:ti_sysbios_gates_GateHwi_Instance_init__F)
                  c30384c0    00000020                 : BIOS.obj (.text:ti_sysbios_gates_GateHwi_enter__E)
                  c30384e0    00000020                 : BIOS.obj (.text:ti_sysbios_gates_GateHwi_leave__E)
                  c3038500    00000020     Dsp_pe674.oe674 (.text:ti_sysbios_gates_GateHwi_query__E)
                  c3038520    00000020     sysbios.lib : BIOS.obj (.text:ti_sysbios_gates_GateHwi_query__F)
                  c3038540    00000020                 : BIOS.obj (.text:ti_sysbios_gates_GateMutexPri_Instance_finalize__F)
                  c3038560    00000020     Dsp_pe674.oe674 (.text:ti_sysbios_gates_GateMutexPri_query__E)
                  c3038580    00000020     sysbios.lib : BIOS.obj (.text:ti_sysbios_gates_GateMutexPri_query__F)
                  c30385a0    00000020                 : BIOS.obj (.text:ti_sysbios_gates_GateMutex_Instance_finalize__F)
                  c30385c0    00000020     Dsp_pe674.oe674 (.text:ti_sysbios_gates_GateMutex_query__E)
                  c30385e0    00000020     sysbios.lib : BIOS.obj (.text:ti_sysbios_gates_GateMutex_query__F)
                  c3038600    00000020                 : BIOS.obj (.text:ti_sysbios_gates_GateSwi_Instance_init__F)
                  c3038620    00000020                 : BIOS.obj (.text:ti_sysbios_gates_GateSwi_enter__E)
                  c3038640    00000020                 : BIOS.obj (.text:ti_sysbios_gates_GateSwi_leave__E)
                  c3038660    00000020     Dsp_pe674.oe674 (.text:ti_sysbios_gates_GateSwi_query__E)
                  c3038680    00000020     sysbios.lib : BIOS.obj (.text:ti_sysbios_gates_GateSwi_query__F)
                  c30386a0    00000020     Dsp_pe674.oe674 (.text:ti_sysbios_hal_Cache_CacheProxy_inv__E)
                  c30386c0    00000020     Dsp_pe674.oe674 (.text:ti_sysbios_hal_Cache_CacheProxy_wbInv__E)
                  c30386e0    00000020     sysbios.lib : BIOS.obj (.text:ti_sysbios_hal_Cache_inv__E)
                  c3038700    00000020                 : BIOS.obj (.text:ti_sysbios_hal_Cache_wbInv__E)
                  c3038720    00000020     Dsp_pe674.oe674 (.text:ti_sysbios_hal_Hwi_HwiProxy_Module__startupDone__S)
                  c3038740    00000020     Dsp_pe674.oe674 (.text:ti_sysbios_hal_Hwi_HwiProxy_Object__create__S)
                  c3038760    00000020     Dsp_pe674.oe674 (.text:ti_sysbios_hal_Hwi_HwiProxy_Object__delete__S)
                  c3038780    00000020     Dsp_pe674.oe674 (.text:ti_sysbios_hal_Hwi_HwiProxy_clearInterrupt__E)
                  c30387a0    00000020     Dsp_pe674.oe674 (.text:ti_sysbios_hal_Hwi_HwiProxy_disableInterrupt__E)
                  c30387c0    00000020     Dsp_pe674.oe674 (.text:ti_sysbios_hal_Hwi_HwiProxy_enableInterrupt__E)
                  c30387e0    00000020     Dsp_pe674.oe674 (.text:ti_sysbios_hal_Hwi_HwiProxy_startup__E)
                  c3038800    00000020     Dsp_pe674.oe674 (.text:ti_sysbios_hal_Hwi_HwiProxy_switchFromBootStack__E)
                  c3038820    00000020     Dsp_pe674.oe674 (.text:ti_sysbios_hal_Hwi_Module_startup__E)
                  c3038840    00000020     sysbios.lib : BIOS.obj (.text:ti_sysbios_hal_Hwi_Module_startup__F)
                  c3038860    00000020     Dsp_pe674.oe674 (.text:ti_sysbios_hal_Hwi_Params__init__S)
                  c3038880    00000020     sysbios.lib : BIOS.obj (.text:ti_sysbios_hal_Hwi_enableInterrupt__E)
                  c30388a0    00000020                 : BIOS.obj (.text:ti_sysbios_hal_Hwi_startup__E)
                  c30388c0    00000020     Dsp_pe674.oe674 (.text:ti_sysbios_hal_Timer_Module__startupDone__S)
                  c30388e0    00000020     Dsp_pe674.oe674 (.text:ti_sysbios_hal_Timer_Module_startup__E)
                  c3038900    00000020     sysbios.lib : BIOS.obj (.text:ti_sysbios_hal_Timer_Module_startup__F)
                  c3038920    00000020     Dsp_pe674.oe674 (.text:ti_sysbios_hal_Timer_TimerProxy_Module__startupDone__S)
                  c3038940    00000020     Dsp_pe674.oe674 (.text:ti_sysbios_hal_Timer_TimerProxy_getExpiredCounts__E)
                  c3038960    00000020     Dsp_pe674.oe674 (.text:ti_sysbios_hal_Timer_TimerProxy_getPeriod__E)
                  c3038980    00000020     Dsp_pe674.oe674 (.text:ti_sysbios_hal_Timer_TimerProxy_setNextTick__E)
                  c30389a0    00000020     Dsp_pe674.oe674 (.text:ti_sysbios_hal_Timer_TimerProxy_startup__E)
                  c30389c0    00000020     sysbios.lib : BIOS.obj (.text:ti_sysbios_hal_Timer_startup__E)
                  c30389e0    00000020     Dsp_pe674.oe674 (.text:ti_sysbios_heaps_HeapMem_Module_GateProxy_enter__E)
                  c3038a00    00000020     Dsp_pe674.oe674 (.text:ti_sysbios_heaps_HeapMem_Module_GateProxy_leave__E)
                  c3038a20    00000020     Dsp_pe674.oe674 (.text:ti_sysbios_heaps_HeapMem_Module_GateProxy_query__E)
                  c3038a40    00000020     sysbios.lib : BIOS.obj (.text:ti_sysbios_heaps_HeapMem_isBlocking__E)
                  c3038a60    00000020     Dsp_pe674.oe674 (.text:ti_sysbios_knl_Clock_Module_startup__E)
                  c3038a80    00000020     Dsp_pe674.oe674 (.text:ti_sysbios_knl_Clock_Params__init__S)
                  c3038aa0    00000020     sysbios.lib : BIOS.obj (.text:ti_sysbios_knl_Clock_logTick__E)
                  c3038ac0    00000020                 : BIOS.obj (.text:ti_sysbios_knl_Queue_Instance_init__F)
                  c3038ae0    00000020     Dsp_pe674.oe674 (.text:ti_sysbios_knl_Queue_Object__destruct__S)
                  c3038b00    00000020     Dsp_pe674.oe674 (.text:ti_sysbios_knl_Queue_Object__get__S)
                  c3038b20    00000020     sysbios.lib : BIOS.obj (.text:ti_sysbios_knl_Queue_empty__E)
                  c3038b40    00000020                 : BIOS.obj (.text:ti_sysbios_knl_Semaphore_Instance_finalize__F)
                  c3038b60    00000020     Dsp_pe674.oe674 (.text:ti_sysbios_knl_Semaphore_Params__init__S)
                  c3038b80    00000020     sysbios.lib : BIOS.obj (.text:ti_sysbios_knl_Swi_Instance_finalize__F)
                  c3038ba0    00000020     Dsp_pe674.oe674 (.text:ti_sysbios_knl_Swi_Module_startup__E)
                  c3038bc0    00000020     Dsp_pe674.oe674 (.text:ti_sysbios_knl_Swi_Params__init__S)
                  c3038be0    00000020     sysbios.lib : BIOS.obj (.text:ti_sysbios_knl_Swi_disable__E)
                  c3038c00    00000020     Dsp_pe674.oe674 (.text:ti_sysbios_knl_Task_Module_startup__E)
                  c3038c20    00000020     Dsp_pe674.oe674 (.text:ti_sysbios_knl_Task_Object__first__S)
                  c3038c40    00000020     Dsp_pe674.oe674 (.text:ti_sysbios_knl_Task_Object__next__S)
                  c3038c60    00000020     Dsp_pe674.oe674 (.text:ti_sysbios_knl_Task_Params__init__S)
                  c3038c80    00000020     Dsp_pe674.oe674 (.text:ti_sysbios_knl_Task_SupportProxy_Module__startupDone__S)
                  c3038ca0    00000020     Dsp_pe674.oe674 (.text:ti_sysbios_knl_Task_SupportProxy_checkStack__E)
                  c3038cc0    00000020     Dsp_pe674.oe674 (.text:ti_sysbios_knl_Task_SupportProxy_getStackAlignment__E)
                  c3038ce0    00000020     Dsp_pe674.oe674 (.text:ti_sysbios_knl_Task_SupportProxy_start__E)
                  c3038d00    00000020     Dsp_pe674.oe674 (.text:ti_sysbios_knl_Task_SupportProxy_swap__E)
                  c3038d20    00000020     sysbios.lib : BIOS.obj (.text:ti_sysbios_knl_Task_disable__E)
                  c3038d40    00000020                 : BIOS.obj (.text:ti_sysbios_knl_Task_getPri__E)
                  c3038d60    00000020                 : BIOS.obj (.text:ti_sysbios_knl_Task_self__E)
                  c3038d80    00000020     Dsp_pe674.oe674 (.text:ti_sysbios_timers_timer64_Timer_Module__startupDone__S)
                  c3038da0    00000020     Dsp_pe674.oe674 (.text:ti_sysbios_timers_timer64_Timer_Module_startup__E)
                  c3038dc0    00000020     Dsp_pe674.oe674 (.text:ti_sysbios_timers_timer64_Timer_Params__init__S)
                  c3038de0    00000020     Dsp_pe674.oe674 (.text:ti_sysbios_timers_timer64_Timer_TimerSupportProxy_enable__E)
                  c3038e00    00000020     sysbios.lib : BIOS.obj (.text:ti_sysbios_timers_timer64_Timer_setNextTick__E)
                  c3038e20    00000020                 : BIOS.obj (.text:ti_sysbios_xdcruntime_GateThreadSupport_Instance_finalize__F)
                  c3038e40    00000020     Dsp_pe674.oe674 (.text:ti_sysbios_xdcruntime_GateThreadSupport_enter__E)
                  c3038e60    00000020     sysbios.lib : BIOS.obj (.text:ti_sysbios_xdcruntime_GateThreadSupport_enter__F)
                  c3038e80    00000020     Dsp_pe674.oe674 (.text:ti_sysbios_xdcruntime_GateThreadSupport_leave__E)
                  c3038ea0    00000020     sysbios.lib : BIOS.obj (.text:ti_sysbios_xdcruntime_GateThreadSupport_leave__F)
                  c3038ec0    00000020     Dsp_pe674.oe674 (.text:ti_sysbios_xdcruntime_GateThreadSupport_query__E)
                  c3038ee0    00000020     sysbios.lib : BIOS.obj (.text:ti_sysbios_xdcruntime_GateThreadSupport_query__F)
                  c3038f00    00000020     Dsp_pe674.oe674 (.text:xdc_runtime_Diags_setMask__E)
                  c3038f20    00000020     Dsp_pe674.oe674 (.text:xdc_runtime_Error_check__E)
                  c3038f40    00000020     Dsp_pe674.oe674 (.text:xdc_runtime_Error_init__E)
                  c3038f60    00000020     Dsp_pe674.oe674 (.text:xdc_runtime_Error_print__E)
                  c3038f80    00000020     Dsp_pe674.oe674 (.text:xdc_runtime_Error_raiseX__E)
                  c3038fa0    00000020     Dsp_pe674.oe674 (.text:xdc_runtime_GateNull_enter__E)
                  c3038fc0    00000020     ti.targets.rts6000.ae674 : GateNull.oe674 (.text:xdc_runtime_GateNull_enter__F)
                  c3038fe0    00000020     Dsp_pe674.oe674 (.text:xdc_runtime_GateNull_leave__E)
                  c3039000    00000020     ti.targets.rts6000.ae674 : GateNull.oe674 (.text:xdc_runtime_GateNull_leave__F)
                  c3039020    00000020     Dsp_pe674.oe674 (.text:xdc_runtime_GateNull_query__E)
                  c3039040    00000020     ti.targets.rts6000.ae674 : GateNull.oe674 (.text:xdc_runtime_GateNull_query__F)
                  c3039060    00000020     Dsp_pe674.oe674 (.text:xdc_runtime_Gate_enterSystem__E)
                  c3039080    00000020     ti.targets.rts6000.ae674 : Gate.oe674 (.text:xdc_runtime_Gate_enterSystem__F)
                  c30390a0    00000020     Dsp_pe674.oe674 (.text:xdc_runtime_Gate_leaveSystem__E)
                  c30390c0    00000020     ti.targets.rts6000.ae674 : Gate.oe674 (.text:xdc_runtime_Gate_leaveSystem__F)
                  c30390e0    00000020     Dsp_pe674.oe674 (.text:xdc_runtime_IHeap_alloc)
                  c3039100    00000020     Dsp_pe674.oe674 (.text:xdc_runtime_IHeap_free)
                  c3039120    00000020     Dsp_pe674.oe674 (.text:xdc_runtime_LoggerBuf_Module_GateProxy_enter__E)
                  c3039140    00000020     Dsp_pe674.oe674 (.text:xdc_runtime_LoggerBuf_Module_GateProxy_leave__E)
                  c3039160    00000020     Dsp_pe674.oe674 (.text:xdc_runtime_LoggerBuf_Module_startup__E)
                  c3039180    00000020     Dsp_pe674.oe674 (.text:xdc_runtime_LoggerBuf_TimestampProxy_get64__E)
                  c30391a0    00000020     Dsp_pe674.oe674 (.text:xdc_runtime_LoggerBuf_disable__E)
                  c30391c0    00000020     ti.targets.rts6000.ae674 : LoggerBuf.oe674 (.text:xdc_runtime_LoggerBuf_disable__F)
                  c30391e0    00000020     Dsp_pe674.oe674 (.text:xdc_runtime_LoggerBuf_enable__E)
                  c3039200    00000020     ti.targets.rts6000.ae674 : LoggerBuf.oe674 (.text:xdc_runtime_LoggerBuf_enable__F)
                  c3039220    00000020     Dsp_pe674.oe674 (.text:xdc_runtime_LoggerBuf_getFilterLevel__E)
                  c3039240    00000020     Dsp_pe674.oe674 (.text:xdc_runtime_LoggerBuf_setFilterLevel__E)
                  c3039260    00000020     Dsp_pe674.oe674 (.text:xdc_runtime_LoggerBuf_write0__E)
                  c3039280    00000020     Dsp_pe674.oe674 (.text:xdc_runtime_LoggerBuf_write1__E)
                  c30392a0    00000020     ti.targets.rts6000.ae674 : LoggerBuf.oe674 (.text:xdc_runtime_LoggerBuf_write1__F)
                  c30392c0    00000020     Dsp_pe674.oe674 (.text:xdc_runtime_LoggerBuf_write2__E)
                  c30392e0    00000020     ti.targets.rts6000.ae674 : LoggerBuf.oe674 (.text:xdc_runtime_LoggerBuf_write2__F)
                  c3039300    00000020     Dsp_pe674.oe674 (.text:xdc_runtime_LoggerBuf_write4__E)
                  c3039320    00000020     Dsp_pe674.oe674 (.text:xdc_runtime_Memory_HeapProxy_alloc__E)
                  c3039340    00000020     Dsp_pe674.oe674 (.text:xdc_runtime_Memory_HeapProxy_free__E)
                  c3039360    00000020     Dsp_pe674.oe674 (.text:xdc_runtime_Memory_alloc__E)
                  c3039380    00000020     Dsp_pe674.oe674 (.text:xdc_runtime_Memory_calloc__E)
                  c30393a0    00000020     Dsp_pe674.oe674 (.text:xdc_runtime_Memory_free__E)
                  c30393c0    00000020     Dsp_pe674.oe674 (.text:xdc_runtime_Memory_getMaxDefaultTypeAlign__E)
                  c30393e0    00000020     ti.targets.rts6000.ae674 : Memory.oe674 (.text:xdc_runtime_Memory_getMaxDefaultTypeAlign__F)
                  c3039400    00000020     Dsp_pe674.oe674 (.text:xdc_runtime_Memory_valloc__E)
                  c3039420    00000020     Dsp_pe674.oe674 (.text:xdc_runtime_Startup_Module__startupDone__S)
                  c3039440    00000020     Dsp_pe674.oe674 (.text:xdc_runtime_Startup_exec__E)
                  c3039460    00000020     Dsp_pe674.oe674 (.text:xdc_runtime_Startup_exec__I)
                  c3039480    00000020     Dsp_pe674.oe674 (.text:xdc_runtime_Startup_reset__I)
                  c30394a0    00000020     Dsp_pe674.oe674 (.text:xdc_runtime_SysMin_Module_startup__E)
                  c30394c0    00000020     Dsp_pe674.oe674 (.text:xdc_runtime_SysMin_abort__E)
                  c30394e0    00000020     Dsp_pe674.oe674 (.text:xdc_runtime_SysMin_exit__E)
                  c3039500    00000020     Dsp_pe674.oe674 (.text:xdc_runtime_SysMin_putch__E)
                  c3039520    00000020     Dsp_pe674.oe674 (.text:xdc_runtime_SysMin_ready__E)
                  c3039540    00000020     ti.targets.rts6000.ae674 : SysMin.oe674 (.text:xdc_runtime_SysMin_ready__F)
                  c3039560    00000020     Dsp_pe674.oe674 (.text:xdc_runtime_System_Module_GateProxy_enter__E)
                  c3039580    00000020     Dsp_pe674.oe674 (.text:xdc_runtime_System_Module_GateProxy_leave__E)
                  c30395a0    00000020     Dsp_pe674.oe674 (.text:xdc_runtime_System_Module_startup__E)
                  c30395c0    00000020     ti.targets.rts6000.ae674 : System.oe674 (.text:xdc_runtime_System_Module_startup__F)
                  c30395e0    00000020     Dsp_pe674.oe674 (.text:xdc_runtime_System_SupportProxy_abort__E)
                  c3039600    00000020     Dsp_pe674.oe674 (.text:xdc_runtime_System_SupportProxy_exit__E)
                  c3039620    00000020     Dsp_pe674.oe674 (.text:xdc_runtime_System_SupportProxy_putch__E)
                  c3039640    00000020     Dsp_pe674.oe674 (.text:xdc_runtime_System_SupportProxy_ready__E)
                  c3039660    00000020     Dsp_pe674.oe674 (.text:xdc_runtime_System_abort__E)
                  c3039680    00000020     Dsp_pe674.oe674 (.text:xdc_runtime_System_atexit__E)
                  c30396a0    00000020     Dsp_pe674.oe674 (.text:xdc_runtime_System_exit__E)
                  c30396c0    00000020     ti.targets.rts6000.ae674 : System.oe674 (.text:xdc_runtime_System_exit__F)
                  c30396e0    00000020                              : System.oe674 (.text:xdc_runtime_System_lastFxn__I)
                  c3039700    00000020     Dsp_pe674.oe674 (.text:xdc_runtime_System_vsprintf__E)
                  c3039720    00000020     ti.targets.rts6000.ae674 : System.oe674 (.text:xdc_runtime_System_vsprintf__F)
                  c3039740    00000020     Dsp_pe674.oe674 (.text:xdc_runtime_Text_cordText__E)
                  c3039760    00000020     Dsp_pe674.oe674 (.text:xdc_runtime_Text_matchRope__E)
                  c3039780    00000020     Dsp_pe674.oe674 (.text:xdc_runtime_Text_putLab__E)
                  c30397a0    00000020     Dsp_pe674.oe674 (.text:xdc_runtime_Text_putSite__E)
                  c30397c0    00000020     Dsp_pe674.oe674 (.text:xdc_runtime_Text_ropeText__E)
                  c30397e0    00000020     Dsp_pe674.oe674 (.text:xdc_runtime_Text_visitRope__I)
                  c3039800    00000020     Dsp_pe674.oe674 (.text:xdc_runtime_knl_GateThread_Module__startupDone__S)
                  c3039820    00000020     Dsp_pe674.oe674 (.text:xdc_runtime_knl_GateThread_Proxy_Object__create__S)
                  c3039840    00000020     Dsp_pe674.oe674 (.text:xdc_runtime_knl_GateThread_Proxy_Object__delete__S)
                  c3039860    00000020     Dsp_pe674.oe674 (.text:xdc_runtime_knl_GateThread_Proxy_enter__E)
                  c3039880    00000020     Dsp_pe674.oe674 (.text:xdc_runtime_knl_GateThread_Proxy_leave__E)
                  c30398a0    00000020     Dsp_pe674.oe674 (.text:xdc_runtime_knl_GateThread_Proxy_query__E)
                  c30398c0    00000020     Dsp_pe674.oe674 (.text:xdc_runtime_knl_GateThread_enter__E)
                  c30398e0    00000020     ti.targets.rts6000.ae674 : GateThread.oe674 (.text:xdc_runtime_knl_GateThread_enter__F)
                  c3039900    00000020     Dsp_pe674.oe674 (.text:xdc_runtime_knl_GateThread_leave__E)
                  c3039920    00000020     ti.targets.rts6000.ae674 : GateThread.oe674 (.text:xdc_runtime_knl_GateThread_leave__F)
                  c3039940    00000020     Dsp_pe674.oe674 (.text:xdc_runtime_knl_GateThread_query__E)
                  c3039960    00000020     ti.targets.rts6000.ae674 : GateThread.oe674 (.text:xdc_runtime_knl_GateThread_query__F)
                  c3039980    00000010     adsamp.oe674 ($Tramp$S$$_Z6AdCopyv)
                  c3039990    00000010     yx.oe674 ($Tramp$S$$_Z11ChecksoftYxv)
                  c30399a0    00000010     yx.oe674 ($Tramp$S$$_Z6SendYxv)
                  c30399b0    00000010     yx.oe674 ($Tramp$S$$_Z6YxInitv)
                  c30399c0    00000010     fa.oe674 ($Tramp$S$$_ZN2FA4InitEv)
                  c30399d0    00000010     localprotect.oe674 ($Tramp$S$$_ZN12LocalProtect4InitEv)
                  c30399e0    00000010     gpio.oe674 ($Tramp$S$$_Z14GPIO_setOutputmhh)
                  c30399f0    00000010     scada.oe674 ($Tramp$S$$_ZN5ScadaC1Ev)
                  c3039a00    00000010     fa.oe674 ($Tramp$S$$_ZN2FA3RunEv)
                  c3039a10    00000010     --HOLE-- [fill = 0]

.far       0    c3039a10    0001f99e     UNINITIALIZED
                  c3039a10    00010098     varm.oe674 (.far)
                  c3049aa8    00006010     Dsp_pe674.oe674 (.far)
                  c304fab8    00003e1c     data.oe674 (.far)
                  c30538d4    00000004     --HOLE--
                  c30538d8    00001940     yx.oe674 (.far)
                  c3055218    000018c0     localprotect.oe674 (.far)
                  c3056ad8    00000fd8     scada.oe674 (.far)
                  c3057ab0    00000800     Dsp_pe674.oe674 (.far:taskStackSection)
                  c30582b0    00000604     dsp.oe674 (.far)
                  c30588b4    00000004     --HOLE--
                  c30588b8    000002b4     yk.oe674 (.far)
                  c3058b6c    000001c4     message.oe674 (.far)
                  c3058d30    00000198     interruptapp.oe674 (.far)
                  c3058ec8    00000190     adsamp.oe674 (.far)
                  c3059058    00000140     rts6740_elf.lib : defs.obj (.far)
                  c3059198    000000d0                     : trgdrv.obj (.far)
                  c3059268    00000078     syslink.oe674 (.far)
                  c30592e0    00000068     task.oe674 (.far)
                  c3059348    00000050     clock.oe674 (.far)
                  c3059398    00000016     fpag.oe674 (.far)

.fardata.2 
*          0    c30593b0    00006bb4     
                  c30593b0    00003774     data.oe674 (.fardata:YcData)
                  c305cb24    00000004     rts6740_elf.lib : defs.obj (.fardata)
                  c305cb28    00001260     data.oe674 (.fardata:ParaData)
                  c305dd88    00000968     data.oe674 (.fardata:YxData)
                  c305e6f0    00000800     Dsp_pe674.oe674 (.fardata:ti_sdo_ipc_GateMP_Module_State_0_remoteSystemGates__A)
                  c305eef0    000003d8     Dsp_pe674.oe674 (.fardata)
                  c305f2c8    000001e0     rts6740_elf.lib : defs.obj (.fardata:_ftable)
                  c305f4a8    00000198     Dsp_pe674.oe674 (.fardata:xdc_runtime_Diags_dictElems)
                  c305f640    000000e0     Dsp_pe674.oe674 (.fardata:ti_sdo_utils_NameServer_Object__table__V)
                  c305f720    000000a0     rts6740_elf.lib : lowlev.obj (.fardata:_stream)
                  c305f7c0    00000090     Dsp_pe674.oe674 (.fardata:ti_sdo_ipc_SharedRegion_Module_State_0_regions__A)
                  c305f850    0000008c     data.oe674 (.fardata:YkData)
                  c305f8dc    00000004     rts6740_elf.lib : dtor_list.obj (.fardata)
                  c305f8e0    00000080     task.oe674 (.fardata:retry$1)
                  c305f960    00000080     Dsp_pe674.oe674 (.fardata:ti_sysbios_knl_Swi_Module_State_0_readyQ__A)
                  c305f9e0    00000080     Dsp_pe674.oe674 (.fardata:ti_sysbios_knl_Task_Module_State_0_readyQ__A)
                  c305fa60    00000080     task.oe674 (.fardata:time_cnt$2)
                  c305fae0    00000078     rts6740_elf.lib : lowlev.obj (.fardata:_device)
                  c305fb58    00000060                     : asin.obj (.fardata:asin_consts$1)
                  c305fbb8    00000060     Dsp_pe674.oe674 (.fardata:ti_sysbios_timers_timer64_Timer_Module_State_0_device__A)
                  c305fc18    0000004c     Dsp_pe674.oe674 (.fardata:ti_sysbios_timers_timer64_Timer_Object__table__V)
                  c305fc64    00000004     rts6740_elf.lib : errno.obj (.fardata)
                  c305fc68    00000044     Dsp_pe674.oe674 (.fardata:ti_sysbios_knl_Task_Object__table__V)
                  c305fcac    00000004     rts6740_elf.lib : vars.obj (.fardata)
                  c305fcb0    00000040                     : cos.obj (.fardata:R$1)
                  c305fcf0    00000040                     : sin.obj (.fardata:R$1)
                  c305fd30    00000040     Dsp_pe674.oe674 (.fardata:ti_sysbios_gates_GateMutex_Object__table__V)
                  c305fd70    00000030     Dsp_pe674.oe674 (.fardata:ti_sysbios_knl_Swi_Object__table__V)
                  c305fda0    00000028     Dsp_pe674.oe674 (.fardata:ti_sdo_ipc_Ipc_Module_State_0_procEntry__A)
                  c305fdc8    00000024     Dsp_pe674.oe674 (.fardata:xdc_runtime_LoggerBuf_Object__table__V)
                  c305fdec    00000004     --HOLE-- [fill = 0]
                  c305fdf0    00000020     Dsp_pe674.oe674 (.fardata:ti_sdo_ipc_MessageQ_Module_State_0_heaps__A)
                  c305fe10    00000020     Dsp_pe674.oe674 (.fardata:ti_sysbios_timers_timer64_Timer_Module_State_0_gctrl__A)
                  c305fe30    00000020     Dsp_pe674.oe674 (.fardata:ti_sysbios_timers_timer64_Timer_Module_State_0_handles__A)
                  c305fe50    00000020     Dsp_pe674.oe674 (.fardata:ti_sysbios_timers_timer64_Timer_Module_State_0_intFreqs__A)
                  c305fe70    00000020     Dsp_pe674.oe674 (.fardata:xdc_runtime_System_Module_State_0_atexitHandlers__A)
                  c305fe90    00000018     Dsp_pe674.oe674 (.fardata:ti_sysbios_family_c64p_Hwi_Object__table__V)
                  c305fea8    00000018     Dsp_pe674.oe674 (.fardata:ti_sysbios_gates_GateMutexPri_Object__table__V)
                  c305fec0    00000014     Dsp_pe674.oe674 (.fardata:ti_sysbios_heaps_HeapMem_Object__table__V)
                  c305fed4    00000004     --HOLE-- [fill = 0]
                  c305fed8    00000010     Dsp_pe674.oe674 (.fardata:ti_sdo_ipc_MessageQ_Module_State_0_transports__A)
                  c305fee8    00000010     Dsp_pe674.oe674 (.fardata:ti_sysbios_gates_GateAll_Object__table__V)
                  c305fef8    0000000c     rts6740_elf.lib : exit.obj (.fardata)
                  c305ff04    00000004     --HOLE-- [fill = 0]
                  c305ff08    0000000c     Dsp_pe674.oe674 (.fardata:ti_sysbios_gates_GateSwi_Object__table__V)
                  c305ff14    00000004     --HOLE-- [fill = 0]
                  c305ff18    00000008     Dsp_pe674.oe674 (.fardata:ti_sdo_ipc_Notify_Module_State_0_notifyHandles__A)
                  c305ff20    00000008     Dsp_pe674.oe674 (.fardata:ti_sdo_ipc_transports_TransportShmSetup_Module_State_0_handles__A)
                  c305ff28    00000008     Dsp_pe674.oe674 (.fardata:ti_sysbios_family_c64p_primus_TimerSupport_Module_State_0_suspSrc__A)
                  c305ff30    00000008     Dsp_pe674.oe674 (.fardata:ti_sysbios_hal_Hwi_Object__table__V)
                  c305ff38    00000008     Dsp_pe674.oe674 (.fardata:ti_sysbios_hal_Timer_Object__table__V)
                  c305ff40    00000004     Dsp_pe674.oe674 (.fardata:ti_sdo_ipc_GateMP_Module_State_0_remoteCustom2Gates__A)
                  c305ff44    00000004     --HOLE-- [fill = 0]
                  c305ff48    00000004     Dsp_pe674.oe674 (.fardata:ti_sdo_ipc_Notify_Module_State_0_notifyHandles_0__A)
                  c305ff4c    00000004     --HOLE-- [fill = 0]
                  c305ff50    00000004     Dsp_pe674.oe674 (.fardata:ti_sdo_ipc_Notify_Module_State_0_notifyHandles_1__A)
                  c305ff54    00000004     --HOLE-- [fill = 0]
                  c305ff58    00000004     Dsp_pe674.oe674 (.fardata:ti_sysbios_gates_GateHwi_Object__table__V)
                  c305ff5c    00000004     --HOLE-- [fill = 0]
                  c305ff60    00000004     Dsp_pe674.oe674 (.fardata:xdc_runtime_GateNull_Object__table__V)

.const     0    c305ff68    000048ca     
                  c305ff68    0000267d     Dsp_pe674.oe674 (.const:xdc_runtime_Text_charTab__A)
                  c30625e5    00000003     --HOLE-- [fill = 0]
                  c30625e8    0000042c     sysbios.lib : BIOS.obj (.const:.string)
                  c3062a14    00000360     syslink.oe674 (.const:.string)
                  c3062d74    00000004     fa.oe674 (.const:.string)
                  c3062d78    00000164     Dsp_pe674.oe674 (.const:xdc_runtime_Text_nodeTab__A)
                  c3062edc    00000004     ti.targets.rts6000.ae674 : Assert.oe674 (.const:.string)
                  c3062ee0    00000101     rts6740_elf.lib : ctype.obj (.const:_ctypes_)
                  c3062fe1    00000003     --HOLE-- [fill = 0]
                  c3062fe4    0000008b     Dsp_pe674.oe674 (.const:.string)
                  c306306f    00000001     --HOLE-- [fill = 0]
                  c3063070    00000080     omapl138.oe674 (.const:bitval_u32)
                  c30630f0    0000007c     task.oe674 (.const:.string)
                  c306316c    00000064     Dsp_pe674.oe674 (.const:ti_sysbios_timers_timer64_Timer_Object__PARAMS__C)
                  c30631d0    00000058     ti.targets.rts6000.ae674 : Error.oe674 (.const:.string)
                  c3063228    00000050     message.oe674 (.const:.string)
                  c3063278    00000040     ti.targets.rts6000.ae674 : Text.oe674 (.const:.string)
                  c30632b8    00000040     Dsp_pe674.oe674 (.const:xdc_runtime_Startup_sfxnTab__A)
                  c30632f8    0000003c     Dsp_pe674.oe674 (.const:xdc_runtime_LoggerBuf_Module__FXNS__C)
                  c3063334    00000038     Dsp_pe674.oe674 (.const:ti_sdo_ipc_notifyDrivers_NotifyDriverShm_Module__FXNS__C)
                  c306336c    00000038     Dsp_pe674.oe674 (.const:ti_sysbios_knl_Task_Object__PARAMS__C)
                  c30633a4    00000034     debug.oe674 (.const:.string)
                  c30633d8    00000034     varm.oe674 (.const:.string)
                  c306340c    00000034     Dsp_pe674.oe674 (.const:ti_sdo_ipc_GateMP_Object__PARAMS__C)
                  c3063440    00000034     Dsp_pe674.oe674 (.const:ti_sdo_ipc_notifyDrivers_NotifyDriverShm_Object__PARAMS__C)
                  c3063474    00000030     Dsp_pe674.oe674 (.const:ti_sdo_ipc_heaps_HeapMemMP_Object__PARAMS__C)
                  c30634a4    00000030     Dsp_pe674.oe674 (.const:ti_sysbios_family_c64p_Hwi_Object__PARAMS__C)
                  c30634d4    0000002c     ti.targets.rts6000.ae674 : Startup.oe674 (.const:.string)
                  c3063500    0000002c     Dsp_pe674.oe674 (.const:ti_sdo_ipc_ListMP_Object__PARAMS__C)
                  c306352c    0000002c     Dsp_pe674.oe674 (.const:ti_sdo_ipc_gates_GateMPSupportNull_Module__FXNS__C)
                  c3063558    0000002c     Dsp_pe674.oe674 (.const:ti_sdo_ipc_gates_GatePeterson_Module__FXNS__C)
                  c3063584    0000002c     Dsp_pe674.oe674 (.const:ti_sysbios_hal_Hwi_Object__PARAMS__C)
                  c30635b0    00000028     Dsp_pe674.oe674 (.const:ti_sdo_ipc_heaps_HeapMemMP_Module__FXNS__C)
                  c30635d8    00000028     Dsp_pe674.oe674 (.const:ti_sdo_ipc_nsremote_NameServerRemoteNotify_Module__FXNS__C)
                  c3063600    00000028     Dsp_pe674.oe674 (.const:ti_sdo_ipc_transports_TransportShm_Module__FXNS__C)
                  c3063628    00000028     Dsp_pe674.oe674 (.const:ti_sdo_ipc_transports_TransportShm_Object__PARAMS__C)
                  c3063650    00000028     Dsp_pe674.oe674 (.const:ti_sysbios_heaps_HeapMem_Module__FXNS__C)
                  c3063678    00000028     Dsp_pe674.oe674 (.const:ti_sysbios_knl_Swi_Object__PARAMS__C)
                  c30636a0    00000028     Dsp_pe674.oe674 (.const:xdc_runtime_LoggerBuf_Object__PARAMS__C)
                  c30636c8    00000025     rts6740_elf.lib : typeinfo_.obj (.const:_ZTSN10__cxxabiv120__si_class_type_infoE)
                  c30636ed    00000003     --HOLE-- [fill = 0]
                  c30636f0    00000024     Dsp_pe674.oe674 (.const:ti_sdo_ipc_gates_GateMPSupportNull_Object__PARAMS__C)
                  c3063714    00000024     Dsp_pe674.oe674 (.const:ti_sdo_ipc_gates_GatePeterson_Object__PARAMS__C)
                  c3063738    00000024     Dsp_pe674.oe674 (.const:ti_sysbios_gates_GateAll_Module__FXNS__C)
                  c306375c    00000024     Dsp_pe674.oe674 (.const:ti_sysbios_gates_GateHwi_Module__FXNS__C)
                  c3063780    00000024     Dsp_pe674.oe674 (.const:ti_sysbios_gates_GateMutexPri_Module__FXNS__C)
                  c30637a4    00000024     Dsp_pe674.oe674 (.const:ti_sysbios_gates_GateMutex_Module__FXNS__C)
                  c30637c8    00000024     Dsp_pe674.oe674 (.const:ti_sysbios_gates_GateSwi_Module__FXNS__C)
                  c30637ec    00000024     Dsp_pe674.oe674 (.const:ti_sysbios_knl_Clock_Object__PARAMS__C)
                  c3063810    00000024     Dsp_pe674.oe674 (.const:ti_sysbios_knl_Semaphore_Object__PARAMS__C)
                  c3063834    00000024     Dsp_pe674.oe674 (.const:xdc_runtime_GateNull_Module__FXNS__C)
                  c3063858    00000024     Dsp_pe674.oe674 (.const:xdc_runtime_knl_GateThread_Module__FXNS__C)
                  c306387c    00000023     rts6740_elf.lib : _printfi.obj (.const:.string)
                  c306389f    00000001     --HOLE-- [fill = 0]
                  c30638a0    00000022                     : typeinfo_.obj (.const:_ZTSN10__cxxabiv117__class_type_infoE)
                  c30638c2    00000002     --HOLE-- [fill = 0]
                  c30638c4    00000020     localprotect.oe674 (.const:.string)
                  c30638e4    00000020     ti.targets.rts6000.ae674 : Core-mem.oe674 (.const:.string)
                  c3063904    00000020     Dsp_pe674.oe674 (.const:ti_sdo_ipc_GateMP_Object__DESC__C)
                  c3063924    00000020     Dsp_pe674.oe674 (.const:ti_sdo_ipc_ListMP_Object__DESC__C)
                  c3063944    00000020     Dsp_pe674.oe674 (.const:ti_sdo_ipc_Notify_Object__DESC__C)
                  c3063964    00000020     Dsp_pe674.oe674 (.const:ti_sdo_ipc_gates_GateMPSupportNull_Object__DESC__C)
                  c3063984    00000020     Dsp_pe674.oe674 (.const:ti_sdo_ipc_gates_GatePeterson_Object__DESC__C)
                  c30639a4    00000020     Dsp_pe674.oe674 (.const:ti_sdo_ipc_heaps_HeapMemMP_Object__DESC__C)
                  c30639c4    00000020     Dsp_pe674.oe674 (.const:ti_sdo_ipc_notifyDrivers_NotifyDriverShm_Object__DESC__C)
                  c30639e4    00000020     Dsp_pe674.oe674 (.const:ti_sdo_ipc_nsremote_NameServerRemoteNotify_Object__DESC__C)
                  c3063a04    00000020     Dsp_pe674.oe674 (.const:ti_sdo_ipc_nsremote_NameServerRemoteNotify_Object__PARAMS__C)
                  c3063a24    00000020     Dsp_pe674.oe674 (.const:ti_sdo_ipc_transports_TransportShm_Object__DESC__C)
                  c3063a44    00000020     Dsp_pe674.oe674 (.const:ti_sdo_utils_List_Object__DESC__C)
                  c3063a64    00000020     Dsp_pe674.oe674 (.const:ti_sysbios_family_c64p_Hwi_Object__DESC__C)
                  c3063a84    00000020     Dsp_pe674.oe674 (.const:ti_sysbios_gates_GateAll_Object__DESC__C)
                  c3063aa4    00000020     Dsp_pe674.oe674 (.const:ti_sysbios_gates_GateHwi_Object__DESC__C)
                  c3063ac4    00000020     Dsp_pe674.oe674 (.const:ti_sysbios_gates_GateMutexPri_Object__DESC__C)
                  c3063ae4    00000020     Dsp_pe674.oe674 (.const:ti_sysbios_gates_GateMutex_Object__DESC__C)
                  c3063b04    00000020     Dsp_pe674.oe674 (.const:ti_sysbios_gates_GateSwi_Object__DESC__C)
                  c3063b24    00000020     Dsp_pe674.oe674 (.const:ti_sysbios_hal_Hwi_Object__DESC__C)
                  c3063b44    00000020     Dsp_pe674.oe674 (.const:ti_sysbios_heaps_HeapMem_Object__DESC__C)
                  c3063b64    00000020     Dsp_pe674.oe674 (.const:ti_sysbios_heaps_HeapMem_Object__PARAMS__C)
                  c3063b84    00000020     Dsp_pe674.oe674 (.const:ti_sysbios_knl_Clock_Object__DESC__C)
                  c3063ba4    00000020     Dsp_pe674.oe674 (.const:ti_sysbios_knl_Queue_Object__DESC__C)
                  c3063bc4    00000020     Dsp_pe674.oe674 (.const:ti_sysbios_knl_Semaphore_Object__DESC__C)
                  c3063be4    00000020     Dsp_pe674.oe674 (.const:ti_sysbios_knl_Swi_Object__DESC__C)
                  c3063c04    00000020     Dsp_pe674.oe674 (.const:ti_sysbios_knl_Task_Object__DESC__C)
                  c3063c24    00000020     Dsp_pe674.oe674 (.const:ti_sysbios_timers_timer64_Timer_Object__DESC__C)
                  c3063c44    00000020     Dsp_pe674.oe674 (.const:ti_sysbios_xdcruntime_GateThreadSupport_Object__DESC__C)
                  c3063c64    00000020     Dsp_pe674.oe674 (.const:xdc_runtime_GateNull_Object__DESC__C)
                  c3063c84    00000020     Dsp_pe674.oe674 (.const:xdc_runtime_LoggerBuf_Object__DESC__C)
                  c3063ca4    00000004     ti.targets.rts6000.ae674 : Diags.oe674 (.const:.string)
                  c3063ca8    00000020     Dsp_pe674.oe674 (.const:xdc_runtime_Startup_sfxnRts__A)
                  c3063cc8    00000020     Dsp_pe674.oe674 (.const:xdc_runtime_knl_GateThread_Object__DESC__C)
                  c3063ce8    0000001d     localprotect.oe674 (.const:_ZZN18DelayStartDelayTAB6GetLabEvEs)
                  c3063d05    00000003     --HOLE-- [fill = 0]
                  c3063d08    0000001c     fa.oe674 (.const:_ZTV2FA)
                  c3063d24    00000004     Dsp_pe674.oe674 (.const:ti_sdo_ipc_GateMP_E_gateUnavailable__C)
                  c3063d28    0000001c     varm.oe674 (.const:_ZTV4Varm)
                  c3063d44    00000004     Dsp_pe674.oe674 (.const:ti_sdo_ipc_GateMP_E_localGate__C)
                  c3063d48    0000001c     scada.oe674 (.const:_ZTV5Scada)
                  c3063d64    00000004     Dsp_pe674.oe674 (.const:ti_sdo_ipc_Ipc_E_internal__C)
                  c3063d68    0000001c     message.oe674 (.const:_ZTV7BaseApp)
                  c3063d84    00000004     Dsp_pe674.oe674 (.const:ti_sdo_ipc_Ipc_E_nameFailed__C)
                  c3063d88    0000001c     message.oe674 (.const:_ZTV7Message)
                  c3063da4    00000004     Dsp_pe674.oe674 (.const:ti_sdo_ipc_Ipc_E_versionMismatch__C)
                  c3063da8    0000001b     localprotect.oe674 (.const:_ZZN16ConterReachedTAB6GetLabEvEs)
                  c3063dc3    00000001     --HOLE-- [fill = 0]
                  c3063dc4    00000004     Dsp_pe674.oe674 (.const:ti_sdo_ipc_Ipc_numUserFxns__C)
                  c3063dc8    0000001a     localprotect.oe674 (.const:_ZZN15ANALOGSTEADYTAB6GetLabEvEs)
                  c3063de2    00000002     --HOLE-- [fill = 0]
                  c3063de4    00000004     Dsp_pe674.oe674 (.const:ti_sdo_ipc_Ipc_procSync__C)
                  c3063de8    0000001a     localprotect.oe674 (.const:_ZZN15ConterRuningTAB6GetLabEvEs)
                  c3063e02    00000002     --HOLE-- [fill = 0]
                  c3063e04    00000004     Dsp_pe674.oe674 (.const:ti_sdo_ipc_Ipc_userFxns__C)
                  c3063e08    00000019     localprotect.oe674 (.const:_ZZN14ConterSleepTAB6GetLabEvEs)
                  c3063e21    00000003     --HOLE-- [fill = 0]
                  c3063e24    00000004     Dsp_pe674.oe674 (.const:ti_sdo_ipc_MessageQ_Instance_State_highList__O)
                  c3063e28    00000019     localprotect.oe674 (.const:_ZZN14StartConterTAB6GetLabEvEs)
                  c3063e41    00000003     --HOLE-- [fill = 0]
                  c3063e44    00000004     Dsp_pe674.oe674 (.const:ti_sdo_ipc_MessageQ_Instance_State_normalList__O)
                  c3063e48    00000018     localprotect.oe674 (.const:_ZZN12LocalProtectC1EvEs)
                  c3063e60    00000018     localprotect.oe674 (.const:_ZZN13DelayStartTAB6GetLabEvEs)
                  c3063e78    00000018     localprotect.oe674 (.const:_ZZN13HIGHANALOGTAB6GetLabEvEs)
                  c3063e90    00000018     localprotect.oe674 (.const:_ZZN13StopConterTAB6GetLabEvEs)
                  c3063ea8    00000018     Dsp_pe674.oe674 (.const:ti_sdo_ipc_Notify_Object__PARAMS__C)
                  c3063ec0    00000018     Dsp_pe674.oe674 (.const:ti_sdo_utils_List_Object__PARAMS__C)
                  c3063ed8    00000018     Dsp_pe674.oe674 (.const:ti_sysbios_gates_GateAll_Object__PARAMS__C)
                  c3063ef0    00000018     Dsp_pe674.oe674 (.const:ti_sysbios_gates_GateHwi_Object__PARAMS__C)
                  c3063f08    00000018     Dsp_pe674.oe674 (.const:ti_sysbios_gates_GateMutexPri_Object__PARAMS__C)
                  c3063f20    00000018     Dsp_pe674.oe674 (.const:ti_sysbios_gates_GateMutex_Object__PARAMS__C)
                  c3063f38    00000018     Dsp_pe674.oe674 (.const:ti_sysbios_gates_GateSwi_Object__PARAMS__C)
                  c3063f50    00000018     Dsp_pe674.oe674 (.const:ti_sysbios_knl_Queue_Object__PARAMS__C)
                  c3063f68    00000018     Dsp_pe674.oe674 (.const:ti_sysbios_knl_Task_hooks__A)
                  c3063f80    00000018     Dsp_pe674.oe674 (.const:ti_sysbios_xdcruntime_GateThreadSupport_Object__PARAMS__C)
                  c3063f98    00000018     Dsp_pe674.oe674 (.const:xdc_runtime_GateNull_Object__PARAMS__C)
                  c3063fb0    00000018     Dsp_pe674.oe674 (.const:xdc_runtime_knl_GateThread_Object__PARAMS__C)
                  c3063fc8    00000017     localprotect.oe674 (.const:_ZZN12LOWANALOGTAB6GetLabEvEs)
                  c3063fdf    00000001     --HOLE-- [fill = 0]
                  c3063fe0    00000015     localprotect.oe674 (.const:_ZZN10COMPARETAB6GetLabEvEs)
                  c3063ff5    00000003     --HOLE-- [fill = 0]
                  c3063ff8    00000014     localprotect.oe674 (.const:_ZZN9STEADYTAB6GetLabEvEs)
                  c306400c    00000004     Dsp_pe674.oe674 (.const:ti_sdo_ipc_MessageQ_Object__count__C)
                  c3064010    00000013     localprotect.oe674 (.const:_ZZN8EQUALTAB6GetLabEvEs)
                  c3064023    00000001     --HOLE-- [fill = 0]
                  c3064024    00000004     Dsp_pe674.oe674 (.const:ti_sdo_ipc_Notify_Module__gateObj__C)
                  c3064028    00000013     localprotect.oe674 (.const:_ZZN8PulseTAB6GetLabEvEs)
                  c306403b    00000001     --HOLE-- [fill = 0]
                  c306403c    00000004     Dsp_pe674.oe674 (.const:ti_sdo_ipc_Notify_Object__heap__C)
                  c3064040    00000012     localprotect.oe674 (.const:_ZTS15DelayStartDelay)
                  c3064052    00000002     --HOLE-- [fill = 0]
                  c3064054    00000004     Dsp_pe674.oe674 (.const:ti_sdo_ipc_Notify_numEvents__C)
                  c3064058    00000012     localprotect.oe674 (.const:_ZZN7NANDTAB6GetLabEvEs)
                  c306406a    00000002     --HOLE-- [fill = 0]
                  c306406c    00000004     Dsp_pe674.oe674 (.const:ti_sdo_ipc_Notify_sendEventPollCount__C)
                  c3064070    00000012     localprotect.oe674 (.const:_ZZN7XNORTAB6GetLabEvEs)
                  c3064082    00000002     --HOLE-- [fill = 0]
                  c3064084    00000004     Dsp_pe674.oe674 (.const:ti_sdo_ipc_SharedRegion_INVALIDSRPTR__C)
                  c3064088    00000012     fa.oe674 (.const:_ZZN9ActionOutC1EvEs)
                  c306409a    00000002     --HOLE-- [fill = 0]
                  c306409c    00000004     Dsp_pe674.oe674 (.const:ti_sdo_ipc_SharedRegion_cacheLineSize__C)
                  c30640a0    00000011     localprotect.oe674 (.const:_ZZN6ANDTAB6GetLabEvEs)
                  c30640b1    00000003     --HOLE-- [fill = 0]
                  c30640b4    00000004     Dsp_pe674.oe674 (.const:ti_sdo_ipc_SharedRegion_numOffsetBits__C)
                  c30640b8    00000011     localprotect.oe674 (.const:_ZZN6NOTTAB6GetLabEvEs)
                  c30640c9    00000003     --HOLE-- [fill = 0]
                  c30640cc    00000004     Dsp_pe674.oe674 (.const:ti_sdo_ipc_SharedRegion_offsetMask__C)
                  c30640d0    00000011     localprotect.oe674 (.const:_ZZN6XORTAB6GetLabEvEs)
                  c30640e1    00000003     --HOLE-- [fill = 0]
                  c30640e4    00000004     Dsp_pe674.oe674 (.const:ti_sdo_ipc_family_da830_NotifySetup_armRecvIntId0__C)
                  c30640e8    00000011     ti.targets.rts6000.ae674 : System.oe674 (.const:digtohex)
                  c30640f9    00000003     --HOLE-- [fill = 0]
                  c30640fc    00000010     data.oe674 (.const:.string)
                  c306410c    00000004     Dsp_pe674.oe674 (.const:ti_sdo_ipc_family_da830_NotifySetup_armRecvIntId1__C)
                  c3064110    00000010     localprotect.oe674 (.const:_ZTS13ConterReached)
                  c3064120    00000010     localprotect.oe674 (.const:_ZTV10DelayStart)
                  c3064130    00000010     localprotect.oe674 (.const:_ZTV10HIGHANALOG)
                  c3064140    00000010     localprotect.oe674 (.const:_ZTV10StopConter)
                  c3064150    00000010     localprotect.oe674 (.const:_ZTV11ConterSleep)
                  c3064160    00000010     localprotect.oe674 (.const:_ZTV11StartConter)
                  c3064170    00000010     localprotect.oe674 (.const:_ZTV12ANALOGSTEADY)
                  c3064180    00000010     localprotect.oe674 (.const:_ZTV12ConterRuning)
                  c3064190    00000010     localprotect.oe674 (.const:_ZTV13ConterReached)
                  c30641a0    00000010     localprotect.oe674 (.const:_ZTV15DelayStartDelay)
                  c30641b0    00000010     localprotect.oe674 (.const:_ZTV2OR)
                  c30641c0    00000010     localprotect.oe674 (.const:_ZTV3AND)
                  c30641d0    00000010     localprotect.oe674 (.const:_ZTV3NOT)
                  c30641e0    00000010     localprotect.oe674 (.const:_ZTV3XOR)
                  c30641f0    00000010     localprotect.oe674 (.const:_ZTV4NAND)
                  c3064200    00000010     localprotect.oe674 (.const:_ZTV4XNOR)
                  c3064210    00000010     localprotect.oe674 (.const:_ZTV5EQUAL)
                  c3064220    00000010     localprotect.oe674 (.const:_ZTV5Pulse)
                  c3064230    00000010     localprotect.oe674 (.const:_ZTV6STEADY)
                  c3064240    00000010     localprotect.oe674 (.const:_ZTV7COMPARE)
                  c3064250    00000010     localprotect.oe674 (.const:_ZTV8BaseTool)
                  c3064260    00000010     localprotect.oe674 (.const:_ZTV9LOWANALOG)
                  c3064270    00000010     rts6740_elf.lib : typeinfo_.obj (.const:_ZTVN10__cxxabiv117__class_type_infoE)
                  c3064280    00000010                     : typeinfo_.obj (.const:_ZTVN10__cxxabiv120__si_class_type_infoE)
                  c3064290    00000010     localprotect.oe674 (.const:_ZZN5ORTAB6GetLabEvEs)
                  c30642a0    0000000f     localprotect.oe674 (.const:_ZTS12ANALOGSTEADY)
                  c30642af    00000001     --HOLE-- [fill = 0]
                  c30642b0    0000000f     localprotect.oe674 (.const:_ZTS12ConterRuning)
                  c30642bf    00000001     --HOLE-- [fill = 0]
                  c30642c0    0000000e     localprotect.oe674 (.const:_ZTS11ConterSleep)
                  c30642ce    00000002     --HOLE-- [fill = 0]
                  c30642d0    0000000e     localprotect.oe674 (.const:_ZTS11StartConter)
                  c30642de    00000002     --HOLE-- [fill = 0]
                  c30642e0    0000000d     localprotect.oe674 (.const:_ZTS10DelayStart)
                  c30642ed    00000003     --HOLE-- [fill = 0]
                  c30642f0    0000000d     localprotect.oe674 (.const:_ZTS10HIGHANALOG)
                  c30642fd    00000003     --HOLE-- [fill = 0]
                  c3064300    0000000d     localprotect.oe674 (.const:_ZTS10StopConter)
                  c306430d    00000003     --HOLE-- [fill = 0]
                  c3064310    0000000d     rts6740_elf.lib : typeinfo_.obj (.const:_ZTSSt9type_info)
                  c306431d    00000003     --HOLE-- [fill = 0]
                  c3064320    0000000c     localprotect.oe674 (.const:_ZTI10DelayStart)
                  c306432c    0000000c     localprotect.oe674 (.const:_ZTI10HIGHANALOG)
                  c3064338    0000000c     localprotect.oe674 (.const:_ZTI10StopConter)
                  c3064344    0000000c     localprotect.oe674 (.const:_ZTI11ConterSleep)
                  c3064350    0000000c     localprotect.oe674 (.const:_ZTI11StartConter)
                  c306435c    0000000c     localprotect.oe674 (.const:_ZTI12ANALOGSTEADY)
                  c3064368    0000000c     localprotect.oe674 (.const:_ZTI12ConterRuning)
                  c3064374    0000000c     localprotect.oe674 (.const:_ZTI13ConterReached)
                  c3064380    0000000c     localprotect.oe674 (.const:_ZTI15DelayStartDelay)
                  c306438c    0000000c     fa.oe674 (.const:_ZTI2FA)
                  c3064398    0000000c     localprotect.oe674 (.const:_ZTI2OR)
                  c30643a4    0000000c     localprotect.oe674 (.const:_ZTI3AND)
                  c30643b0    0000000c     localprotect.oe674 (.const:_ZTI3NOT)
                  c30643bc    0000000c     localprotect.oe674 (.const:_ZTI3XOR)
                  c30643c8    0000000c     localprotect.oe674 (.const:_ZTI4NAND)
                  c30643d4    0000000c     varm.oe674 (.const:_ZTI4Varm)
                  c30643e0    0000000c     localprotect.oe674 (.const:_ZTI4XNOR)
                  c30643ec    0000000c     localprotect.oe674 (.const:_ZTI5EQUAL)
                  c30643f8    0000000c     localprotect.oe674 (.const:_ZTI5Pulse)
                  c3064404    0000000c     scada.oe674 (.const:_ZTI5Scada)
                  c3064410    0000000c     localprotect.oe674 (.const:_ZTI6STEADY)
                  c306441c    0000000c     localprotect.oe674 (.const:_ZTI7COMPARE)
                  c3064428    0000000c     message.oe674 (.const:_ZTI7Message)
                  c3064434    0000000c     localprotect.oe674 (.const:_ZTI9LOWANALOG)
                  c3064440    0000000c     rts6740_elf.lib : typeinfo_.obj (.const:_ZTIN10__cxxabiv117__class_type_infoE)
                  c306444c    0000000c                     : typeinfo_.obj (.const:_ZTIN10__cxxabiv120__si_class_type_infoE)
                  c3064458    0000000c     task.oe674 (.const:__func__$3)
                  c3064464    00000004     Dsp_pe674.oe674 (.const:ti_sdo_ipc_family_da830_NotifySetup_dspIntVectId0__C)
                  c3064468    0000000c     Dsp_pe674.oe674 (.const:ti_sdo_ipc_Ipc_userFxns__A)
                  c3064474    0000000c     Dsp_pe674.oe674 (.const:ti_sysbios_family_c64p_Cache_initSize__C)
                  c3064480    0000000b     localprotect.oe674 (.const:_ZTS9LOWANALOG)
                  c306448b    00000001     --HOLE-- [fill = 0]
                  c306448c    00000004     Dsp_pe674.oe674 (.const:ti_sdo_ipc_family_da830_NotifySetup_dspIntVectId1__C)
                  c3064490    0000000b     task.oe674 (.const:__func__$4)
                  c306449b    00000001     --HOLE-- [fill = 0]
                  c306449c    00000004     Dsp_pe674.oe674 (.const:ti_sdo_ipc_family_da830_NotifySetup_dspRecvIntId0__C)
                  c30644a0    0000000a     localprotect.oe674 (.const:_ZTS8BaseTool)
                  c30644aa    00000002     --HOLE-- [fill = 0]
                  c30644ac    00000004     Dsp_pe674.oe674 (.const:ti_sdo_ipc_family_da830_NotifySetup_dspRecvIntId1__C)
                  c30644b0    00000009     message.oe674 (.const:_ZTS7BaseApp)
                  c30644b9    00000003     --HOLE-- [fill = 0]
                  c30644bc    00000004     Dsp_pe674.oe674 (.const:ti_sdo_ipc_gates_GatePeterson_E_gateRemotelyOpened__C)
                  c30644c0    00000009     localprotect.oe674 (.const:_ZTS7COMPARE)
                  c30644c9    00000003     --HOLE-- [fill = 0]
                  c30644cc    00000004     Dsp_pe674.oe674 (.const:ti_sdo_ipc_heaps_HeapMemMP_E_memory__C)
                  c30644d0    00000009     message.oe674 (.const:_ZTS7Message)
                  c30644d9    00000003     --HOLE-- [fill = 0]
                  c30644dc    00000004     Dsp_pe674.oe674 (.const:ti_sdo_ipc_interfaces_IGateMPSupport_Interface__BASE__C)
                  c30644e0    00000009     message.oe674 (.const:__func__$1)
                  c30644e9    00000003     --HOLE-- [fill = 0]
                  c30644ec    00000008     scada.oe674 (.const:.string)
                  c30644f4    00000008     ti.targets.rts6000.ae674 : System.oe674 (.const:.string)
                  c30644fc    00000008     message.oe674 (.const:_ZTI7BaseApp)
                  c3064504    00000008     localprotect.oe674 (.const:_ZTI8BaseTool)
                  c306450c    00000008     rts6740_elf.lib : typeinfo_.obj (.const:_ZTISt9type_info)
                  c3064514    00000004     Dsp_pe674.oe674 (.const:ti_sdo_ipc_interfaces_IMessageQTransport_Interface__BASE__C)
                  c3064518    00000008     localprotect.oe674 (.const:_ZTS6STEADY)
                  c3064520    00000008     scada.oe674 (.const)
                  c3064528    00000008     Dsp_pe674.oe674 (.const:ti_sdo_utils_MultiProc_nameList__A)
                  c3064530    00000008     Dsp_pe674.oe674 (.const:ti_sysbios_knl_Idle_funcList__C)
                  c3064538    00000008     Dsp_pe674.oe674 (.const:ti_sysbios_knl_Task_hooks__C)
                  c3064540    00000008     Dsp_pe674.oe674 (.const:xdc_runtime_Startup_firstFxns__A)
                  c3064548    00000008     Dsp_pe674.oe674 (.const:xdc_runtime_Startup_firstFxns__C)
                  c3064550    00000008     Dsp_pe674.oe674 (.const:xdc_runtime_Startup_lastFxns__C)
                  c3064558    00000007     localprotect.oe674 (.const:_ZTS5EQUAL)
                  c306455f    00000001     --HOLE-- [fill = 0]
                  c3064560    00000007     localprotect.oe674 (.const:_ZTS5Pulse)
                  c3064567    00000001     --HOLE-- [fill = 0]
                  c3064568    00000007     scada.oe674 (.const:_ZTS5Scada)
                  c306456f    00000001     --HOLE-- [fill = 0]
                  c3064570    00000006     localprotect.oe674 (.const:_ZTS4NAND)
                  c3064576    00000002     --HOLE-- [fill = 0]
                  c3064578    00000006     varm.oe674 (.const:_ZTS4Varm)
                  c306457e    00000002     --HOLE-- [fill = 0]
                  c3064580    00000006     localprotect.oe674 (.const:_ZTS4XNOR)
                  c3064586    00000002     --HOLE-- [fill = 0]
                  c3064588    00000005     localprotect.oe674 (.const:_ZTS3AND)
                  c306458d    00000003     --HOLE-- [fill = 0]
                  c3064590    00000005     localprotect.oe674 (.const:_ZTS3NOT)
                  c3064595    00000003     --HOLE-- [fill = 0]
                  c3064598    00000005     localprotect.oe674 (.const:_ZTS3XOR)
                  c306459d    00000003     --HOLE-- [fill = 0]
                  c30645a0    00000004     fa.oe674 (.const:_ZTS2FA)
                  c30645a4    00000004     Dsp_pe674.oe674 (.const:ti_sdo_ipc_interfaces_INotifyDriver_Interface__BASE__C)
                  c30645a8    00000004     localprotect.oe674 (.const:_ZTS2OR)
                  c30645ac    00000004     Dsp_pe674.oe674 (.const:ti_sdo_ipc_notifyDrivers_NotifyDriverShm_Object__heap__C)
                  c30645b0    00000004     message.oe674 (.const:__func__$2)
                  c30645b4    00000004     Dsp_pe674.oe674 (.const:ti_sdo_ipc_nsremote_NameServerRemoteNotify_Instance_State_semMultiBlock__O)
                  c30645b8    00000004     Dsp_pe674.oe674 (.const:ti_sdo_ipc_nsremote_NameServerRemoteNotify_Instance_State_semRemoteWait__O)
                  c30645bc    00000004     Dsp_pe674.oe674 (.const:ti_sdo_ipc_nsremote_NameServerRemoteNotify_Instance_State_swiObj__O)
                  c30645c0    00000004     Dsp_pe674.oe674 (.const:ti_sdo_ipc_nsremote_NameServerRemoteNotify_notifyEventId__C)
                  c30645c4    00000004     Dsp_pe674.oe674 (.const:ti_sdo_ipc_nsremote_NameServerRemoteNotify_timeout__C)
                  c30645c8    00000004     Dsp_pe674.oe674 (.const:ti_sdo_ipc_transports_TransportShmSetup_priority__C)
                  c30645cc    00000004     Dsp_pe674.oe674 (.const:ti_sdo_ipc_transports_TransportShm_Instance_State_swiObj__O)
                  c30645d0    00000004     Dsp_pe674.oe674 (.const:ti_sdo_utils_INameServerRemote_Interface__BASE__C)
                  c30645d4    00000004     Dsp_pe674.oe674 (.const:ti_sdo_utils_MultiProc_nameList__C)
                  c30645d8    00000004     Dsp_pe674.oe674 (.const:ti_sdo_utils_NameServer_E_entryExists__C)
                  c30645dc    00000004     Dsp_pe674.oe674 (.const:ti_sdo_utils_NameServer_E_maxReached__C)
                  c30645e0    00000004     Dsp_pe674.oe674 (.const:ti_sdo_utils_NameServer_Instance_State_freeList__O)
                  c30645e4    00000004     Dsp_pe674.oe674 (.const:ti_sdo_utils_NameServer_Instance_State_nameList__O)
                  c30645e8    00000004     Dsp_pe674.oe674 (.const:ti_sdo_utils_NameServer_Object__count__C)
                  c30645ec    00000004     Dsp_pe674.oe674 (.const:ti_sysbios_BIOS_installedErrorHook__C)
                  c30645f0    00000004     Dsp_pe674.oe674 (.const:ti_sysbios_family_c62_TaskSupport_stackAlignment__C)
                  c30645f4    00000004     Dsp_pe674.oe674 (.const:ti_sysbios_family_c64p_Cache_EMIFA_BASE__C)
                  c30645f8    00000004     Dsp_pe674.oe674 (.const:ti_sysbios_family_c64p_Cache_EMIFA_CFG__C)
                  c30645fc    00000004     Dsp_pe674.oe674 (.const:ti_sysbios_family_c64p_Cache_EMIFA_LENGTH__C)
                  c3064600    00000004     Dsp_pe674.oe674 (.const:ti_sysbios_family_c64p_Cache_EMIFB_BASE__C)
                  c3064604    00000004     Dsp_pe674.oe674 (.const:ti_sysbios_family_c64p_Cache_EMIFB_CFG__C)
                  c3064608    00000004     Dsp_pe674.oe674 (.const:ti_sysbios_family_c64p_Cache_EMIFB_LENGTH__C)
                  c306460c    00000004     Dsp_pe674.oe674 (.const:ti_sysbios_family_c64p_Cache_EMIFC_BASE__C)
                  c3064610    00000004     Dsp_pe674.oe674 (.const:ti_sysbios_family_c64p_Cache_EMIFC_CFG__C)
                  c3064614    00000004     Dsp_pe674.oe674 (.const:ti_sysbios_family_c64p_Cache_EMIFC_LENGTH__C)
                  c3064618    00000004     Dsp_pe674.oe674 (.const:ti_sysbios_family_c64p_Cache_MAR0_31__C)
                  c306461c    00000004     Dsp_pe674.oe674 (.const:ti_sysbios_family_c64p_Cache_MAR128_159__C)
                  c3064620    00000004     Dsp_pe674.oe674 (.const:ti_sysbios_family_c64p_Cache_MAR160_191__C)
                  c3064624    00000004     Dsp_pe674.oe674 (.const:ti_sysbios_family_c64p_Cache_MAR192_223__C)
                  c3064628    00000004     Dsp_pe674.oe674 (.const:ti_sysbios_family_c64p_Cache_MAR224_255__C)
                  c306462c    00000004     Dsp_pe674.oe674 (.const:ti_sysbios_family_c64p_Cache_MAR32_63__C)
                  c3064630    00000004     Dsp_pe674.oe674 (.const:ti_sysbios_family_c64p_Cache_MAR64_95__C)
                  c3064634    00000004     Dsp_pe674.oe674 (.const:ti_sysbios_family_c64p_Cache_MAR96_127__C)
                  c3064638    00000004     Dsp_pe674.oe674 (.const:ti_sysbios_family_c64p_Exception_E_exceptionMin__C)
                  c306463c    00000004     Dsp_pe674.oe674 (.const:ti_sysbios_family_c64p_Exception_exceptionHook__C)
                  c3064640    00000004     Dsp_pe674.oe674 (.const:ti_sysbios_family_c64p_Exception_externalHook__C)
                  c3064644    00000004     Dsp_pe674.oe674 (.const:ti_sysbios_family_c64p_Exception_internalHook__C)
                  c3064648    00000004     Dsp_pe674.oe674 (.const:ti_sysbios_family_c64p_Exception_nmiHook__C)
                  c306464c    00000004     Dsp_pe674.oe674 (.const:ti_sysbios_family_c64p_Hwi_E_alreadyDefined__C)
                  c3064650    00000004     Dsp_pe674.oe674 (.const:ti_sysbios_gates_GateMutexPri_Instance_State_pendQ__O)
                  c3064654    00000004     Dsp_pe674.oe674 (.const:ti_sysbios_gates_GateMutex_Instance_State_sem__O)
                  c3064658    00000004     Dsp_pe674.oe674 (.const:ti_sysbios_hal_Hwi_E_stackOverflow__C)
                  c306465c    00000004     Dsp_pe674.oe674 (.const:ti_sysbios_heaps_HeapMem_E_memory__C)
                  c3064660    00000004     Dsp_pe674.oe674 (.const:ti_sysbios_heaps_HeapMem_Module__gateObj__C)
                  c3064664    00000004     Dsp_pe674.oe674 (.const:ti_sysbios_heaps_HeapMem_Object__count__C)
                  c3064668    00000004     Dsp_pe674.oe674 (.const:ti_sysbios_heaps_HeapMem_reqAlignMask__C)
                  c306466c    00000004     Dsp_pe674.oe674 (.const:ti_sysbios_heaps_HeapMem_reqAlign__C)
                  c3064670    00000004     Dsp_pe674.oe674 (.const:ti_sysbios_knl_Clock_Module_State_clockQ__O)
                  c3064674    00000004     Dsp_pe674.oe674 (.const:ti_sysbios_knl_Clock_tickMode__C)
                  c3064678    00000004     Dsp_pe674.oe674 (.const:ti_sysbios_knl_Clock_tickSource__C)
                  c306467c    00000004     Dsp_pe674.oe674 (.const:ti_sysbios_knl_Semaphore_Instance_State_pendQ__O)
                  c3064680    00000004     Dsp_pe674.oe674 (.const:ti_sysbios_knl_Idle_funcList__A)
                  c3064684    00000004     Dsp_pe674.oe674 (.const:ti_sysbios_knl_Swi_Object__count__C)
                  c3064688    00000004     Dsp_pe674.oe674 (.const:ti_sysbios_knl_Task_E_spOutOfBounds__C)
                  c306468c    00000004     Dsp_pe674.oe674 (.const:ti_sysbios_knl_Task_E_stackOverflow__C)
                  c3064690    00000004     Dsp_pe674.oe674 (.const:ti_sysbios_knl_Task_Module_State_inactiveQ__O)
                  c3064694    00000004     Dsp_pe674.oe674 (.const:ti_sysbios_knl_Task_Module_State_terminatedQ__O)
                  c3064698    00000004     Dsp_pe674.oe674 (.const:ti_sysbios_knl_Task_Object__count__C)
                  c306469c    00000004     Dsp_pe674.oe674 (.const:ti_sysbios_knl_Task_Object__heap__C)
                  c30646a0    00000004     Dsp_pe674.oe674 (.const:ti_sysbios_knl_Task_allBlockedFunc__C)
                  c30646a4    00000004     Dsp_pe674.oe674 (.const:ti_sysbios_knl_Task_defaultStackHeap__C)
                  c30646a8    00000004     Dsp_pe674.oe674 (.const:ti_sysbios_knl_Task_defaultStackSize__C)
                  c30646ac    00000004     Dsp_pe674.oe674 (.const:ti_sysbios_knl_Task_numConstructedTasks__C)
                  c30646b0    00000004     Dsp_pe674.oe674 (.const:ti_sysbios_timers_timer64_Timer_E_cannotSupport__C)
                  c30646b4    00000004     Dsp_pe674.oe674 (.const:ti_sysbios_timers_timer64_Timer_E_invalidTimer__C)
                  c30646b8    00000004     Dsp_pe674.oe674 (.const:ti_sysbios_timers_timer64_Timer_E_notAvailable__C)
                  c30646bc    00000004     Dsp_pe674.oe674 (.const:ti_sysbios_timers_timer64_Timer_anyMask__C)
                  c30646c0    00000004     Dsp_pe674.oe674 (.const:ti_sysbios_timers_timer64_Timer_defaultHalf__C)
                  c30646c4    00000004     Dsp_pe674.oe674 (.const:ti_sysbios_timers_timer64_Timer_freqDivisor__C)
                  c30646c8    00000004     Dsp_pe674.oe674 (.const:ti_sysbios_timers_timer64_Timer_numLocalTimers__C)
                  c30646cc    00000004     Dsp_pe674.oe674 (.const:ti_sysbios_timers_timer64_Timer_numTimerDevices__C)
                  c30646d0    00000004     Dsp_pe674.oe674 (.const:ti_sysbios_xdcruntime_GateThreadSupport_Instance_State_gate__O)
                  c30646d4    00000004     Dsp_pe674.oe674 (.const:xdc_runtime_Assert_E_assertFailed__C)
                  c30646d8    00000004     Dsp_pe674.oe674 (.const:xdc_runtime_Core_A_initializedParams__C)
                  c30646dc    00000004     Dsp_pe674.oe674 (.const:xdc_runtime_Core_Module__diagsEnabled__C)
                  c30646e0    00000004     Dsp_pe674.oe674 (.const:xdc_runtime_Core_Module__diagsIncluded__C)
                  c30646e4    00000004     Dsp_pe674.oe674 (.const:xdc_runtime_Core_Module__diagsMask__C)
                  c30646e8    00000004     Dsp_pe674.oe674 (.const:xdc_runtime_Diags_dictBase__C)
                  c30646ec    00000004     Dsp_pe674.oe674 (.const:xdc_runtime_Error_E_generic__C)
                  c30646f0    00000004     Dsp_pe674.oe674 (.const:xdc_runtime_Error_E_memory__C)
                  c30646f4    00000004     Dsp_pe674.oe674 (.const:xdc_runtime_Error_Module__diagsEnabled__C)
                  c30646f8    00000004     Dsp_pe674.oe674 (.const:xdc_runtime_Error_Module__diagsIncluded__C)
                  c30646fc    00000004     Dsp_pe674.oe674 (.const:xdc_runtime_Error_Module__diagsMask__C)
                  c3064700    00000004     Dsp_pe674.oe674 (.const:xdc_runtime_Error_Module__loggerFxn8__C)
                  c3064704    00000004     Dsp_pe674.oe674 (.const:xdc_runtime_Error_Module__loggerObj__C)
                  c3064708    00000004     Dsp_pe674.oe674 (.const:xdc_runtime_Error_policy__C)
                  c306470c    00000004     Dsp_pe674.oe674 (.const:xdc_runtime_Error_raiseHook__C)
                  c3064710    00000004     Dsp_pe674.oe674 (.const:xdc_runtime_IFilterLogger_Interface__BASE__C)
                  c3064714    00000004     Dsp_pe674.oe674 (.const:xdc_runtime_IGateProvider_Interface__BASE__C)
                  c3064718    00000004     Dsp_pe674.oe674 (.const:xdc_runtime_IHeap_Interface__BASE__C)
                  c306471c    00000004     Dsp_pe674.oe674 (.const:xdc_runtime_ILogger_Interface__BASE__C)
                  c3064720    00000004     Dsp_pe674.oe674 (.const:xdc_runtime_IModule_Interface__BASE__C)
                  c3064724    00000004     Dsp_pe674.oe674 (.const:xdc_runtime_Log_L_error__C)
                  c3064728    00000004     Dsp_pe674.oe674 (.const:xdc_runtime_LoggerBuf_E_badLevel__C)
                  c306472c    00000004     Dsp_pe674.oe674 (.const:xdc_runtime_LoggerBuf_Module__gateObj__C)
                  c3064730    00000004     Dsp_pe674.oe674 (.const:xdc_runtime_LoggerBuf_Object__count__C)
                  c3064734    00000004     Dsp_pe674.oe674 (.const:xdc_runtime_LoggerBuf_statusLogger__C)
                  c3064738    00000004     Dsp_pe674.oe674 (.const:xdc_runtime_Main_Module__diagsEnabled__C)
                  c306473c    00000004     Dsp_pe674.oe674 (.const:xdc_runtime_Main_Module__diagsIncluded__C)
                  c3064740    00000004     Dsp_pe674.oe674 (.const:xdc_runtime_Main_Module__diagsMask__C)
                  c3064744    00000004     Dsp_pe674.oe674 (.const:xdc_runtime_Main_Module__loggerFxn1__C)
                  c3064748    00000004     Dsp_pe674.oe674 (.const:xdc_runtime_Main_Module__loggerFxn2__C)
                  c306474c    00000004     Dsp_pe674.oe674 (.const:xdc_runtime_Main_Module__loggerFxn4__C)
                  c3064750    00000004     Dsp_pe674.oe674 (.const:xdc_runtime_Main_Module__loggerObj__C)
                  c3064754    00000004     Dsp_pe674.oe674 (.const:xdc_runtime_Memory_defaultHeapInstance__C)
                  c3064758    00000004     Dsp_pe674.oe674 (.const:xdc_runtime_Registry_Module__diagsMask__C)
                  c306475c    00000004     Dsp_pe674.oe674 (.const:xdc_runtime_Startup_execImpl__C)
                  c3064760    00000004     Dsp_pe674.oe674 (.const:xdc_runtime_Startup_lastFxns__A)
                  c3064764    00000004     Dsp_pe674.oe674 (.const:xdc_runtime_Startup_maxPasses__C)
                  c3064768    00000004     Dsp_pe674.oe674 (.const:xdc_runtime_Startup_sfxnRts__C)
                  c306476c    00000004     Dsp_pe674.oe674 (.const:xdc_runtime_Startup_sfxnTab__C)
                  c3064770    00000004     Dsp_pe674.oe674 (.const:xdc_runtime_SysMin_bufSize__C)
                  c3064774    00000004     Dsp_pe674.oe674 (.const:xdc_runtime_SysMin_outputFunc__C)
                  c3064778    00000004     Dsp_pe674.oe674 (.const:xdc_runtime_System_Module__gateObj__C)
                  c306477c    00000004     Dsp_pe674.oe674 (.const:xdc_runtime_System_extendFxn__C)
                  c3064780    00000004     Dsp_pe674.oe674 (.const:xdc_runtime_System_maxAtexitHandlers__C)
                  c3064784    00000004     Dsp_pe674.oe674 (.const:xdc_runtime_Text_charTab__C)
                  c3064788    00000004     Dsp_pe674.oe674 (.const:xdc_runtime_Text_nameEmpty__C)
                  c306478c    00000004     Dsp_pe674.oe674 (.const:xdc_runtime_Text_nameStatic__C)
                  c3064790    00000004     Dsp_pe674.oe674 (.const:xdc_runtime_Text_nameUnknown__C)
                  c3064794    00000004     Dsp_pe674.oe674 (.const:xdc_runtime_Text_nodeTab__C)
                  c3064798    00000004     Dsp_pe674.oe674 (.const:xdc_runtime_Text_visitRopeFxn__C)
                  c306479c    00000002     Dsp_pe674.oe674 (.const:ti_sdo_ipc_GateMP_Module__id__C)
                  c306479e    00000002     --HOLE-- [fill = 0]
                  c30647a0    00000002     Dsp_pe674.oe674 (.const:ti_sdo_ipc_Ipc_generateSlaveDataForHost__C)
                  c30647a2    00000002     --HOLE-- [fill = 0]
                  c30647a4    00000002     Dsp_pe674.oe674 (.const:ti_sdo_ipc_ListMP_Module__id__C)
                  c30647a6    00000002     --HOLE-- [fill = 0]
                  c30647a8    00000002     Dsp_pe674.oe674 (.const:ti_sdo_ipc_Notify_numLines__C)
                  c30647aa    00000002     --HOLE-- [fill = 0]
                  c30647ac    00000002     Dsp_pe674.oe674 (.const:ti_sdo_ipc_SharedRegion_numEntries__C)
                  c30647ae    00000002     --HOLE-- [fill = 0]
                  c30647b0    00000002     Dsp_pe674.oe674 (.const:ti_sdo_ipc_SharedRegion_translate__C)
                  c30647b2    00000002     --HOLE-- [fill = 0]
                  c30647b4    00000002     Dsp_pe674.oe674 (.const:ti_sdo_ipc_family_da830_NotifySetup_useSecondLine__C)
                  c30647b6    00000002     --HOLE-- [fill = 0]
                  c30647b8    00000002     Dsp_pe674.oe674 (.const:ti_sdo_ipc_gates_GatePeterson_Module__id__C)
                  c30647ba    00000002     --HOLE-- [fill = 0]
                  c30647bc    00000002     Dsp_pe674.oe674 (.const:ti_sdo_ipc_heaps_HeapMemMP_Module__id__C)
                  c30647be    00000002     --HOLE-- [fill = 0]
                  c30647c0    00000002     Dsp_pe674.oe674 (.const:ti_sdo_ipc_nsremote_NameServerRemoteNotify_Module__id__C)
                  c30647c2    00000002     --HOLE-- [fill = 0]
                  c30647c4    00000002     Dsp_pe674.oe674 (.const:ti_sdo_ipc_transports_TransportShm_Module__id__C)
                  c30647c6    00000002     --HOLE-- [fill = 0]
                  c30647c8    00000002     Dsp_pe674.oe674 (.const:ti_sdo_ipc_transports_TransportShm_notifyEventId__C)
                  c30647ca    00000002     --HOLE-- [fill = 0]
                  c30647cc    00000002     Dsp_pe674.oe674 (.const:ti_sdo_utils_MultiProc_numProcessors__C)
                  c30647ce    00000002     --HOLE-- [fill = 0]
                  c30647d0    00000002     Dsp_pe674.oe674 (.const:ti_sdo_utils_MultiProc_numProcsInCluster__C)
                  c30647d2    00000002     --HOLE-- [fill = 0]
                  c30647d4    00000002     Dsp_pe674.oe674 (.const:ti_sdo_utils_NameServer_Module__id__C)
                  c30647d6    00000002     --HOLE-- [fill = 0]
                  c30647d8    00000002     Dsp_pe674.oe674 (.const:ti_sysbios_family_c64p_Exception_Module__id__C)
                  c30647da    00000002     --HOLE-- [fill = 0]
                  c30647dc    00000002     Dsp_pe674.oe674 (.const:ti_sysbios_family_c64p_Hwi_Module__id__C)
                  c30647de    00000002     --HOLE-- [fill = 0]
                  c30647e0    00000002     Dsp_pe674.oe674 (.const:ti_sysbios_hal_Hwi_Module__id__C)
                  c30647e2    00000002     --HOLE-- [fill = 0]
                  c30647e4    00000002     Dsp_pe674.oe674 (.const:ti_sysbios_heaps_HeapMem_Module__id__C)
                  c30647e6    00000002     --HOLE-- [fill = 0]
                  c30647e8    00000002     Dsp_pe674.oe674 (.const:ti_sysbios_knl_Task_Module__id__C)
                  c30647ea    00000002     --HOLE-- [fill = 0]
                  c30647ec    00000002     Dsp_pe674.oe674 (.const:ti_sysbios_knl_Task_deleteTerminatedTasks__C)
                  c30647ee    00000002     --HOLE-- [fill = 0]
                  c30647f0    00000002     Dsp_pe674.oe674 (.const:ti_sysbios_knl_Task_initStackFlag__C)
                  c30647f2    00000002     --HOLE-- [fill = 0]
                  c30647f4    00000002     Dsp_pe674.oe674 (.const:ti_sysbios_timers_timer64_Timer_Module__id__C)
                  c30647f6    00000002     --HOLE-- [fill = 0]
                  c30647f8    00000002     Dsp_pe674.oe674 (.const:ti_sysbios_timers_timer64_Timer_startupNeeded__C)
                  c30647fa    00000002     --HOLE-- [fill = 0]
                  c30647fc    00000002     Dsp_pe674.oe674 (.const:xdc_runtime_Core_Module__id__C)
                  c30647fe    00000002     --HOLE-- [fill = 0]
                  c3064800    00000002     Dsp_pe674.oe674 (.const:xdc_runtime_Diags_setMaskEnabled__C)
                  c3064802    00000002     --HOLE-- [fill = 0]
                  c3064804    00000002     Dsp_pe674.oe674 (.const:xdc_runtime_Error_Module__loggerDefined__C)
                  c3064806    00000002     --HOLE-- [fill = 0]
                  c3064808    00000002     Dsp_pe674.oe674 (.const:xdc_runtime_Error_maxDepth__C)
                  c306480a    00000002     --HOLE-- [fill = 0]
                  c306480c    00000002     Dsp_pe674.oe674 (.const:xdc_runtime_LoggerBuf_Module__id__C)
                  c306480e    00000002     --HOLE-- [fill = 0]
                  c3064810    00000002     Dsp_pe674.oe674 (.const:xdc_runtime_LoggerBuf_filterByLevel__C)
                  c3064812    00000002     --HOLE-- [fill = 0]
                  c3064814    00000002     Dsp_pe674.oe674 (.const:xdc_runtime_Main_Module__id__C)
                  c3064816    00000002     --HOLE-- [fill = 0]
                  c3064818    00000002     Dsp_pe674.oe674 (.const:xdc_runtime_Main_Module__loggerDefined__C)
                  c306481a    00000002     --HOLE-- [fill = 0]
                  c306481c    00000002     Dsp_pe674.oe674 (.const:xdc_runtime_Memory_Module__id__C)
                  c306481e    00000002     --HOLE-- [fill = 0]
                  c3064820    00000002     Dsp_pe674.oe674 (.const:xdc_runtime_SysMin_flushAtExit__C)
                  c3064822    00000002     --HOLE-- [fill = 0]
                  c3064824    00000002     Dsp_pe674.oe674 (.const:xdc_runtime_Text_charCnt__C)
                  c3064826    00000002     --HOLE-- [fill = 0]
                  c3064828    00000002     Dsp_pe674.oe674 (.const:xdc_runtime_Text_isLoaded__C)
                  c306482a    00000002     --HOLE-- [fill = 0]
                  c306482c    00000002     Dsp_pe674.oe674 (.const:xdc_runtime_Text_registryModsLastId__C)
                  c306482e    00000002     --HOLE-- [fill = 0]
                  c3064830    00000002     Dsp_pe674.oe674 (.const:xdc_runtime_Text_unnamedModsLastId__C)

.stack     0    c3064838    00001000     UNINITIALIZED
                  c3064838    00000008     boot.ae674 : boot.oe674 (.stack)
                  c3064840    00000ff8     --HOLE--

.switch    0    c3065838    000001b4     
                  c3065838    00000068     scada.oe674 (.switch:_ZN5Scada7ReadCfgEm)
                  c30658a0    00000060     yx.oe674 (.switch:_Z9YxReadCfgm)
                  c3065900    00000054     localprotect.oe674 (.switch:_ZN12LocalProtect10BaseMdInitEv)
                  c3065954    00000024     gpio.oe674 (.switch:_Z21getRegisterBankAndBitmhPm)
                  c3065978    0000001c     yk.oe674 (.switch:_Z12CheckYkStates7dcodata)
                  c3065994    00000018     scada.oe674 (.switch:_ZN5Scada7PtAdaptEv)
                  c30659ac    00000010     yk.oe674 (.switch:_Z15BreakCloseCheckhh)
                  c30659bc    00000010     debug.oe674 (.switch:_Z5debugiiPKcS0_iS0_z)
                  c30659cc    00000010     data.oe674 (.switch:_ZN8UserData10RecallDataEtt)
                  c30659dc    00000010     ipc.lib : Ipc.obj (.switch:ti_sdo_ipc_GateMP_Instance_finalize__F)

.cio       0    c30659ec    00000120     UNINITIALIZED
                  c30659ec    00000120     rts6740_elf.lib : trgmsg.obj (.cio)

.bss       0    c3065b10    00000068     UNINITIALIZED
                  c3065b10    00000048     interruptapp.oe674 (.bss)
                  c3065b58    0000000c     yk.oe674 (.bss)
                  c3065b64    00000004     dsp.oe674 (.bss)
                  c3065b68    00000004     rts6740_elf.lib : dtor_list.obj (.bss)
                  c3065b6c    00000004     syslink.oe674 (.bss)
                  c3065b70    00000004     task.oe674 (.bss)
                  c3065b74    00000004     varm.oe674 (.bss)

.neardata 
*          0    c3065b78    0000003a     
                  c3065b78    0000001c     localprotect.oe674 (.neardata)
                  c3065b94    0000000c     interruptapp.oe674 (.neardata)
                  c3065ba0    00000008     Dsp_pe674.oe674 (.neardata)
                  c3065ba8    00000004     fpag.oe674 (.neardata)
                  c3065bac    00000003     fa.oe674 (.neardata)
                  c3065baf    00000001     --HOLE-- [fill = 0]
                  c3065bb0    00000002     fft.oe674 (.neardata)

.rodata    0    c3065bb4    00000008     
                  c3065bb4    00000008     fft.oe674 (.rodata)

.data.1    0    c3065bc0    00000038     
                  c3065bc0    00000038     logsp.oe674 (.data)

.vecs      0    c3065c00    00000200     
                  c3065c00    00000200     Dsp_pe674.oe674 (.vecs)

.data.2    0    c3065e00    00000024     
                  c3065e00    00000024     expsp.oe674 (.data)

.args      0    c3065e24    00000064     
                  c3065e24    00000064     --HOLE-- [fill = 0]

.init_array 
*          0    c3065e88    00000028     
                  c3065e88    00000004     clock.oe674 (.init_array)
                  c3065e8c    00000004     data.oe674 (.init_array)
                  c3065e90    00000004     dsp.oe674 (.init_array)
                  c3065e94    00000004     fa.oe674 (.init_array)
                  c3065e98    00000004     localprotect.oe674 (.init_array)
                  c3065e9c    00000004     message.oe674 (.init_array)
                  c3065ea0    00000004     scada.oe674 (.init_array)
                  c3065ea4    00000004     varm.oe674 (.init_array)
                  c3065ea8    00000004     yk.oe674 (.init_array)
                  c3065eac    00000004     yx.oe674 (.init_array)

ti_sdo_ipc_init 
*          0    c3066000    0000004c     
                  c3066000    0000004c     Dsp_pe674.oe674 (ti_sdo_ipc_init)


FAR CALL TRAMPOLINES

callee name               trampoline name
   callee addr  tramp addr   call addr  call info
--------------  -----------  ---------  ----------------
$codenmifxn:adsamp.oe674$0x4ec  $Tramp$S$$_Z6AdCopyv
   1171854c     c3039980     c3001d80   scada.oe674 (.text)
$YXCODEINDDR2:yx.oe674$0xe78  $Tramp$S$$_Z11ChecksoftYxv
   1171a798     c3039990     c3001db8   scada.oe674 (.text)
$YXCODEINDDR2:yx.oe674$0x758  $Tramp$S$$_Z6SendYxv
   1171a078     c30399a0     c3001dc0   scada.oe674 (.text)
$YXCODEINDDR2:yx.oe674$0x1628  $Tramp$S$$_Z6YxInitv
   1171af48     c30399b0     c3003a0c   scada.oe674 (.text)
$FaInDDR2_CODE:fa.oe674$0x3c8  $Tramp$S$$_ZN2FA4InitEv
   1170d688     c30399c0     c3003a20   scada.oe674 (.text)
$localprotectInDDR2:localprotect.oe674$0x28e0  $Tramp$S$$_ZN12LocalProtect4InitEv
   11715c40     c30399d0     c3003a34   scada.oe674 (.text)
$codeGPIO_setOutput:gpio.oe674$0x0  $Tramp$S$$_Z14GPIO_setOutputmhh
   1171f700     c30399e0     c3003a80   scada.oe674 (.text)
$scadainit_code:scada.oe674$0x0  $Tramp$S$$_ZN5ScadaC1Ev
   1171d8c0     c30399f0     c3003ab0   scada.oe674 (.text)
$FaInDDR2_CODE:fa.oe674$0x3278  $Tramp$S$$_ZN2FA3RunEv
   11710538     c3039a00     c3012428   fa.oe674 (.text)
$.text:ti_sysbios_knl_Swi_post__E:sysbios.lib<BIOS.obj>$0x0  $Tramp$S$$ti_sysbios_knl_Swi_post__E
   c302fca0     117198e0     11718504   adsamp.oe674 (codenmifxn)
$.text:yx.oe674$0x494     $Tramp$S$$_Z5GetYxv
   c3012094     117198f0     117184f8   adsamp.oe674 (codenmifxn)
$.text:__remu:rts6740_elf.lib<remu.obj>$0x0  $Tramp$S$$__c6xabi_remu
   c302ee40     11719900     117184e8   adsamp.oe674 (codenmifxn)
$.text:memset:rts6740_elf.lib<memset.obj>$0x0  $Tramp$S$$memset
   c302c120     1171afc0     1171af8c   yx.oe674 (YXCODEINDDR2)
$.text:yx.oe674$0x1e8     $Tramp$S$$_Z14ReadYxFromFpgav
   c3011de8     1171afd0     1171af4c   yx.oe674 (YXCODEINDDR2)
$.text:clock.oe674$0x2e8  $Tramp$S$$_ZN5Clock12StartMsClockEP9setmstimey
   c300c4c8     1171afe0     1171a9a4   yx.oe674 (YXCODEINDDR2)
                             1171ab64   yx.oe674 (YXCODEINDDR2)
                             1171ad50   yx.oe674 (YXCODEINDDR2)
                             1171af14   yx.oe674 (YXCODEINDDR2)
$.text:clock.oe674$0xcec  $Tramp$S$$_ZN5Clock13GetCP56Time2aEv
   c300cecc     1171aff0     1171a8b0   yx.oe674 (YXCODEINDDR2)
                             1171aa70   yx.oe674 (YXCODEINDDR2)
                             1171ac58   yx.oe674 (YXCODEINDDR2)
                             1171ae20   yx.oe674 (YXCODEINDDR2)
$.text:yx.oe674$0x344     $Tramp$S$$_Z14YxNatureChangeai
   c3011f44     1171b000     1171a8a4   yx.oe674 (YXCODEINDDR2)
                             1171aa64   yx.oe674 (YXCODEINDDR2)
                             1171ac4c   yx.oe674 (YXCODEINDDR2)
                             1171ae10   yx.oe674 (YXCODEINDDR2)
$.text:clock.oe674$0x264  $Tramp$S$$_ZN5Clock12CheckMsClockEP9setmstime
   c300c444     1171b010     1171a874   yx.oe674 (YXCODEINDDR2)
                             1171aa34   yx.oe674 (YXCODEINDDR2)
                             1171ac20   yx.oe674 (YXCODEINDDR2)
                             1171ade8   yx.oe674 (YXCODEINDDR2)
$.text:clock.oe674$0x2c0  $Tramp$S$$_ZN5Clock11StopMsClockEP9setmstime
   c300c4a0     1171b020     1171a848   yx.oe674 (YXCODEINDDR2)
                             1171aa08   yx.oe674 (YXCODEINDDR2)
                             1171abf0   yx.oe674 (YXCODEINDDR2)
                             1171adb8   yx.oe674 (YXCODEINDDR2)
$.text:data.oe674$0x3a0   $Tramp$S$$_ZN8UserData7SetDataElP4DataI12BaseDataTypeE
   c300af80     1171b030     1171a1d0   yx.oe674 (YXCODEINDDR2)
                             1171a950   yx.oe674 (YXCODEINDDR2)
                             1171ab10   yx.oe674 (YXCODEINDDR2)
                             1171ad00   yx.oe674 (YXCODEINDDR2)
                             1171aec4   yx.oe674 (YXCODEINDDR2)
$.text:message.oe674$0x214  $Tramp$S$$_ZN7Message7SendMsgEmllP12BaseDataTypeP9time_data
   c3015374     1171b040     1171a190   yx.oe674 (YXCODEINDDR2)
                             1171a924   yx.oe674 (YXCODEINDDR2)
                             1171aae4   yx.oe674 (YXCODEINDDR2)
                             1171acd0   yx.oe674 (YXCODEINDDR2)
                             1171ae94   yx.oe674 (YXCODEINDDR2)
$.text:_ZN9DataType1C1Ev:scada.oe674$0x0  $Tramp$S$$_ZN9DataType1C1Ev
   c30370e0     1171b050     1171a084   yx.oe674 (YXCODEINDDR2)
                             1171a7a4   yx.oe674 (YXCODEINDDR2)
$.text:__strasgi_64plus:rts6740_elf.lib<strasg.obj>$0x0  $Tramp$S$$__c6xabi_strasgi_64plus
   c3035c40     1171b060     11719974   yx.oe674 (YXCODEINDDR2)
                             11719a94   yx.oe674 (YXCODEINDDR2)
                             11719aac   yx.oe674 (YXCODEINDDR2)
                             11719ac4   yx.oe674 (YXCODEINDDR2)
                             11719ad8   yx.oe674 (YXCODEINDDR2)
$.text:data.oe674$0x58    $Tramp$S$$_ZN8UserData7GetDataElP4DataI12BaseDataTypeE
   c300ac38     1171b070     11719938   yx.oe674 (YXCODEINDDR2)
$.text:_ZN9DataType4C1Ev:scada.oe674$0x0  $Tramp$S$$_ZN9DataType4C1Ev
   c3035a00     1171b080     1171992c   yx.oe674 (YXCODEINDDR2)
$.text:fa.oe674$0x318     $Tramp$S$$_ZN2FA14FixTimeProtectEv
   c3012738     11710580     11710568   fa.oe674 (FaInDDR2_CODE)
$.text:optasm:sinsp.oe674$0x14  $Tramp$S$$sinsp
   c3028494     11710590     1170dab0   fa.oe674 (FaInDDR2_CODE)
                             1170db04   fa.oe674 (FaInDDR2_CODE)
                             1170dc48   fa.oe674 (FaInDDR2_CODE)
                             1170dca0   fa.oe674 (FaInDDR2_CODE)
$.text:optasm:cossp.oe674$0x0  $Tramp$S$$cossp
   c3028240     117105a0     1170da84   fa.oe674 (FaInDDR2_CODE)
                             1170dadc   fa.oe674 (FaInDDR2_CODE)
                             1170dc18   fa.oe674 (FaInDDR2_CODE)
                             1170dc74   fa.oe674 (FaInDDR2_CODE)
$.text:__strasgi_64plus:rts6740_elf.lib<strasg.obj>$0x0  $Tramp$S$$__c6xabi_strasgi_64plus
   c3035c40     117105b0     1170d5f4   fa.oe674 (FaInDDR2_CODE)
                             1170d8c0   fa.oe674 (FaInDDR2_CODE)
$.text:data.oe674$0x58    $Tramp$S$$_ZN8UserData7GetDataElP4DataI12BaseDataTypeE
   c300ac38     117105c0     1170d308   fa.oe674 (FaInDDR2_CODE)
                             1170d354   fa.oe674 (FaInDDR2_CODE)
                             1170d394   fa.oe674 (FaInDDR2_CODE)
                             1170d3e0   fa.oe674 (FaInDDR2_CODE)
                             1170d424   fa.oe674 (FaInDDR2_CODE)
                             1170d46c   fa.oe674 (FaInDDR2_CODE)
                             1170d4b0   fa.oe674 (FaInDDR2_CODE)
                             1170d4f0   fa.oe674 (FaInDDR2_CODE)
                             1170d530   fa.oe674 (FaInDDR2_CODE)
                             1170d574   fa.oe674 (FaInDDR2_CODE)
$.text:data.oe674$0x58    $Tramp$S$$_ZN8UserData7GetDataElP4DataI12BaseDataTypeE
   c300ac38     11715ec0     11715ca8   localprotect.oe674 (localprotectInDDR2)
                             11715cf4   localprotect.oe674 (localprotectInDDR2)
                             11715d68   localprotect.oe674 (localprotectInDDR2)
                             11715db8   localprotect.oe674 (localprotectInDDR2)
$.text:localprotect.oe674$0x0  $Tramp$S$$_ZN12LocalProtect7ParacpyEv
   c30113c0     11715ed0     11715c48   localprotect.oe674 (localprotectInDDR2)
                             11715e00   localprotect.oe674 (localprotectInDDR2)
                             11715e34   localprotect.oe674 (localprotectInDDR2)
                             11715e6c   localprotect.oe674 (localprotectInDDR2)
$.text:_ZN7NewToolI8BaseToolE6ConfigE8NODEDATA:localprotect.oe674$0x0  $Tramp$S$$_ZN7NewToolI8BaseToolE6ConfigE8NODEDATA
   c302d5a0     11715ee0     11715a78   localprotect.oe674 (localprotectInDDR2)
$.text:printf:rts6740_elf.lib<printf.obj>$0x0  $Tramp$S$$printf
   c3030920     11715ef0     11715a34   localprotect.oe674 (localprotectInDDR2)
$.text:_ZN14ConterSleepTAB6GetLabEv:localprotect.oe674$0x0  $Tramp$S$$_ZN14ConterSleepTAB6GetLabEv
   c3032300     11715f00     117159b4   localprotect.oe674 (localprotectInDDR2)
$.text:_ZN15ConterRuningTAB6GetLabEv:localprotect.oe674$0x0  $Tramp$S$$_ZN15ConterRuningTAB6GetLabEv
   c3032480     11715f10     11715994   localprotect.oe674 (localprotectInDDR2)
$.text:_ZN16ConterReachedTAB6GetLabEv:localprotect.oe674$0x0  $Tramp$S$$_ZN16ConterReachedTAB6GetLabEv
   c3032540     11715f20     11715974   localprotect.oe674 (localprotectInDDR2)
$.text:_ZN13StopConterTAB6GetLabEv:localprotect.oe674$0x0  $Tramp$S$$_ZN13StopConterTAB6GetLabEv
   c30322a0     11715f30     11715954   localprotect.oe674 (localprotectInDDR2)
$.text:_ZN14StartConterTAB6GetLabEv:localprotect.oe674$0x0  $Tramp$S$$_ZN14StartConterTAB6GetLabEv
   c3032360     11715f40     11715934   localprotect.oe674 (localprotectInDDR2)
$.text:_ZN18DelayStartDelayTAB6GetLabEv:localprotect.oe674$0x0  $Tramp$S$$_ZN18DelayStartDelayTAB6GetLabEv
   c30325a0     11715f50     11715914   localprotect.oe674 (localprotectInDDR2)
$.text:_ZN8PulseTAB6GetLabEv:localprotect.oe674$0x0  $Tramp$S$$_ZN8PulseTAB6GetLabEv
   c3032a80     11715f60     117158f4   localprotect.oe674 (localprotectInDDR2)
$.text:_ZN13DelayStartTAB6GetLabEv:localprotect.oe674$0x0  $Tramp$S$$_ZN13DelayStartTAB6GetLabEv
   c30321e0     11715f70     117158d4   localprotect.oe674 (localprotectInDDR2)
$.text:_ZN15ANALOGSTEADYTAB6GetLabEv:localprotect.oe674$0x0  $Tramp$S$$_ZN15ANALOGSTEADYTAB6GetLabEv
   c30323c0     11715f80     117158b4   localprotect.oe674 (localprotectInDDR2)
$.text:_ZN10COMPARETAB6GetLabEv:localprotect.oe674$0x0  $Tramp$S$$_ZN10COMPARETAB6GetLabEv
   c3031fa0     11715f90     11715894   localprotect.oe674 (localprotectInDDR2)
$.text:_ZN12LOWANALOGTAB6GetLabEv:localprotect.oe674$0x0  $Tramp$S$$_ZN12LOWANALOGTAB6GetLabEv
   c3032180     11715fa0     11715874   localprotect.oe674 (localprotectInDDR2)
$.text:_ZN13HIGHANALOGTAB6GetLabEv:localprotect.oe674$0x0  $Tramp$S$$_ZN13HIGHANALOGTAB6GetLabEv
   c3032240     11715fb0     11715854   localprotect.oe674 (localprotectInDDR2)
$.text:_ZN9STEADYTAB6GetLabEv:localprotect.oe674$0x0  $Tramp$S$$_ZN9STEADYTAB6GetLabEv
   c3032ba0     11715fc0     11715834   localprotect.oe674 (localprotectInDDR2)
$.text:_ZN7XNORTAB6GetLabEv:localprotect.oe674$0x0  $Tramp$S$$_ZN7XNORTAB6GetLabEv
   c30329c0     11715fd0     11715814   localprotect.oe674 (localprotectInDDR2)
$.text:_ZN6XORTAB6GetLabEv:localprotect.oe674$0x0  $Tramp$S$$_ZN6XORTAB6GetLabEv
   c3032840     11715fe0     117157f4   localprotect.oe674 (localprotectInDDR2)
$.text:_ZN5ORTAB6GetLabEv:localprotect.oe674$0x0  $Tramp$S$$_ZN5ORTAB6GetLabEv
   c30326c0     11715ff0     117157d4   localprotect.oe674 (localprotectInDDR2)
$.text:_ZN7NANDTAB6GetLabEv:localprotect.oe674$0x0  $Tramp$S$$_ZN7NANDTAB6GetLabEv
   c3032960     11716000     117157b4   localprotect.oe674 (localprotectInDDR2)
$.text:_ZN6ANDTAB6GetLabEv:localprotect.oe674$0x0  $Tramp$S$$_ZN6ANDTAB6GetLabEv
   c3032720     11716010     11715794   localprotect.oe674 (localprotectInDDR2)
$.text:_ZN6NOTTAB6GetLabEv:localprotect.oe674$0x0  $Tramp$S$$_ZN6NOTTAB6GetLabEv
   c30327e0     11716020     11715774   localprotect.oe674 (localprotectInDDR2)
$.text:_ZN8EQUALTAB6GetLabEv:localprotect.oe674$0x0  $Tramp$S$$_ZN8EQUALTAB6GetLabEv
   c3032a20     11716030     11715754   localprotect.oe674 (localprotectInDDR2)
$.text:memset:rts6740_elf.lib<memset.obj>$0x0  $Tramp$S$$memset
   c302c120     11716040     11713508   localprotect.oe674 (localprotectInDDR2)
                             11713544   localprotect.oe674 (localprotectInDDR2)
$.text:fpag.oe674$0x518   $Tramp$S$$_Z12FpgaReadDatahPtt
   c300f798     1171e400     1171dce0   scada.oe674 (scadainit_code)
$.text:scada.oe674$0x224  $Tramp$S$$_Z11YcRatioInith
   c3000224     1171e410     1171dc84   scada.oe674 (scadainit_code)
                             1171dc8c   scada.oe674 (scadainit_code)
                             1171dcf0   scada.oe674 (scadainit_code)
$.text:scada.oe674$0x58   $Tramp$S$$_Z13adcompass_intv
   c3000058     1171e420     1171dc80   scada.oe674 (scadainit_code)
$.text:scada.oe674$0x54c  $Tramp$S$$_Z11YcStandInitv
   c300054c     1171e430     1171da70   scada.oe674 (scadainit_code)
                             1171dab8   scada.oe674 (scadainit_code)
                             1171dad4   scada.oe674 (scadainit_code)
                             1171dd24   scada.oe674 (scadainit_code)
$.text:__strasgi_64plus:rts6740_elf.lib<strasg.obj>$0x0  $Tramp$S$$__c6xabi_strasgi_64plus
   c3035c40     1171e440     1171d964   scada.oe674 (scadainit_code)
                             1171dba0   scada.oe674 (scadainit_code)
                             1171dbb8   scada.oe674 (scadainit_code)
                             1171dbd4   scada.oe674 (scadainit_code)
                             1171dc08   scada.oe674 (scadainit_code)
$.text:data.oe674$0x58    $Tramp$S$$_ZN8UserData7GetDataElP4DataI12BaseDataTypeE
   c300ac38     1171e450     1171d928   scada.oe674 (scadainit_code)
$.text:strcpy:rts6740_elf.lib<strcpy.obj>$0x0  $Tramp$S$$strcpy
   c3032e40     1171e460     1171d8f8   scada.oe674 (scadainit_code)
$.text:_ZN10_ScadaParaC1Ev:scada.oe674$0x0  $Tramp$S$$_ZN10_ScadaParaC1Ev
   c3027dc0     1171e470     1171d8e0   scada.oe674 (scadainit_code)
$.text:_ZN7BaseAppC2Ev:message.oe674$0x0  $Tramp$S$$_ZN7BaseAppC2Ev
   c3036ee0     1171e480     1171d8c4   scada.oe674 (scadainit_code)
$.text:fa.oe674$0x318     $Tramp$S$$_ZN2FA14FixTimeProtectEv
   c3012738     1171f6c0     1171f6a8   fft.oe674 (codeFFT)
$.text:optasm:sqrtsp.oe674$0x0  $Tramp$S$$sqrtsp
   c302f520     1171f6d0     1171f440   fft.oe674 (codeFFT)
$.text:DSPF_sp_fftSPxSP:DSPF_sp_fftSPxSP.oe674$0x0  $Tramp$S$$DSPF_sp_fftSPxSP
   c3019d80     1171f6e0     1171f3b4   fft.oe674 (codeFFT)
$.text:adsamp.oe674$0x534  $Tramp$S$$_Z6ManSetv
   c300d914     1171fbe0     1171fbc0   interruptapp.oe674 (codeHwiDynamic)
$.text:clock.oe674$0xb0   $Tramp$S$$_ZN5Clock4tickEv
   c300c290     1171fbf0     1171fba8   interruptapp.oe674 (codeHwiDynamic)

[69 trampolines]
[129 trampoline calls]


GLOBAL SYMBOLS: SORTED ALPHABETICALLY BY Name 

address    name
--------   ----
1170bec0   AD16_BUF
1171b0a0   AD_BU
11706ec0   AD_BUF
c3055d60   AnalogsteadyTab
c30562ac   AndTab
c3058ec8   BreakLockState
c3058908   BrkPro
c30373a0   C$$EXIT
c30343f8   C$$IO$$
c3065b20   ClockHandle1
c3058e28   ClockParams
c3055e24   CompareTab
c3055280   ConterReachedTab
c305524c   ConterRuningTab
c3055218   ConterSleepTab
c3019d80   DSPF_sp_fftSPxSP
c3055348   DelayStartDelayTab
c3055a58   DelayStartTab
c3065b60   DiffPhase
c3065b5c   DiffVol
c3058a60   DiffVolName
c3058a58   DiffVolP
c3053920   DpYx
c3053918   DpYxCurrent
c3065b14   DynamictimerHandle
c3058dc4   DynamictimerParams
c30567b4   EqualTab
1171c4a8   FFT_OUT
c3059398   FpgaCfg
1171d8a8   FpgaHost
1171f9e0   FpgaSlave
c3031e20   GateMP_Params_init
c30301a0   GateMP_close
c3036ac0   GateMP_enter
c3036ae0   GateMP_leave
c301fb40   GateMP_openByAddr
c30223a0   GateMP_sharedMemReq
c3065b38   GpioB0Int0Handle
c3058e9c   GpioB0Int0Params
c302e9e0   HOSTclose
c30297a0   HOSTlseek
c302b6a0   HOSTopen
c302cd60   HOSTread
c3024600   HOSTrename
c302ce20   HOSTunlink
c302cee0   HOSTwrite
c3031e80   HeapMemMP_Params_init
c302cfa0   HeapMemMP_create
c3026780   HeapMemMP_openByAddr
c3030220   HeapMemMP_restore
c3027b80   HeapMemMP_sharedMemReq
c3055fc4   HighanalogTab
c3054db0   HumLimit
c3065b34   HwiHandle
c3065b10   HwiTimerHandle
c3058d60   HwiTimerParams
c3065b98   Hwienable
c3065b58   HzCkType
c3065b88   IMAX
c3014a20   Ipc_attach
c30142c0   Ipc_detach
c3066008   Ipc_sr0MemorySetup
c301d180   Ipc_start
c30302a0   Ipc_stop
c3023760   Ipc_writeConfig
c3065b94   IrtFlag
1171fc00   JB_RMS
1171f8a0   LineVol
c302d060   ListMP_create
c30213a0   ListMP_getHead
c3022580   ListMP_openByAddr
c301d400   ListMP_putTail
c301d680   ListMP_remove
c30298a0   ListMP_sharedMemReq
c3065bc0   Logtab_asm
c3055ed0   LowanalogTab
c30268c0   MessageQ_put
c302d120   MultiProc_getId
c301a120   NameServer_add
c3036b00   NameServer_addUInt32
c3024780   NameServer_getHandle
c302b780   NameServer_getLocal
c3036b20   NameServer_removeEntry
c3056288   NandTab
c3056710   NotTab
c3034940   Notify_intLineRegistered
c3031ee0   Notify_numIntLines
c3026a00   Notify_registerEvent
c30299a0   Notify_registerEventSingle
c3029aa0   Notify_sendEvent
c3031f40   Notify_sharedMemReq
c301fd80   Notify_unregisterEvent
c3029ba0   Notify_unregisterEventSingle
c3065b18   Null0TimeHandle
c3065b1c   Null1TimeHandle
c3056164   OrTab
c30553c0   PulseTab
c302d1e0   SharedRegion_getId
c302ea80   SharedRegion_getPtr
c302eb20   SharedRegion_getSRPtr
c3053a68   SoeBuffer
c30552e0   StartConterTab
c30560b8   SteadyTab
c30552b4   StopConterTab
c3065b28   SwiFftHandle
c3065ba0   Syslink_terminateEventId
c3065ba4   Syslink_terminateEventLineId
c3065ba8   TIMEOUT
c305fc68   TSK_idle
c3054da0   TemLimit
c3065b80   UL
c3065b8c   UMAX
c3065b84   UR
c3065b90   Uzero
c30560dc   XnorTab
c3056100   XorTab
c30588b8   YKtimeOut
c3056ad8   YcData
11716060   YcDeadTime
c3058ed0   YcRatio
c30588e0   YkGapTime
c3054dc0   YueXianYx
c30551e0   YxConfigure
c30538d8   YxCurrent
c30538f8   YxNature
c30538e8   YxStatus
c3066000   _Ipc_ResetVector
c300e914   _Z10CheckNoVolv
c301b280   _Z10FreqFollows
c300f290   _Z10GetSlaveIDh
1171fae0   _Z10HwiDynamicj
c3012524   _Z10ProtectOutth
c3028638   _Z10mutex_initP5mutexPKc
c3028674   _Z10mutex_lockP5mutex
c300003c   _Z10scada_mainPv
c300ee88   _Z11BreakRecordsh
1171a798   _Z11ChecksoftYxv
c300fd10   _Z11FpgaCfgInitv
c3011dc4   _Z11GetHardYxIdi
c300f434   _Z11ReceiveFlagh
c300f3c4   _Z11ReceiveFullh
c3000224   _Z11YcRatioInith
c300054c   _Z11YcStandInitv
c3012f74   _Z11config_pll0mmmmmmm
c30131a8   _Z11config_pll1mmmmm
c3023cd4   _Z11dump_binaryPhs
c3028634   _Z11thread_initv
c3012438   _Z12BreakerStatuth
c300e770   _Z12CheckYkStates7dcodata
c300f798   _Z12FpgaReadDatahPtt
11719cc8   _Z12YxCompassIntv
c3015160   _Z12message_mainPv
c3028690   _Z12mutex_unlockP5mutex
c300f524   _Z13FpgaWriteDatahPtt
c3013390   _Z13UTIL_printMemmPhmh
1171a220   _Z13YueXianYxInitv
c3000058   _Z13adcompass_intv
c301b0b4   _Z13interrupt_intv
c3028660   _Z13mutex_destroyP5mutex
c30285f0   _Z13thread_signalP4cond
1171f700   _Z14GPIO_setOutputmhh
c300d768   _Z14I_harmonic_numh
c3011de8   _Z14ReadYxFromFpgav
c300d684   _Z14U_harmonic_numh
c3011f44   _Z14YxNatureChangeai
c300ea2c   _Z15BreakCloseCheckhh
c300f32c   _Z15ReceiveTimerOuth
c3012c20   _Z16EVMOMAPL138_initv
c300d7e0   _Z16I_harmonic_radioh
c3015f74   _Z16OnCheckNormalMsgPcm
c300d6fc   _Z16U_harmonic_radioh
c30285e0   _Z16thread_cond_initP4condPKc
c3028614   _Z16thread_wait_condP4cond
c3012630   _Z17CloseBreakerCheckhh
c3028604   _Z17thread_signal_allP4cond
c3012c40   _Z19EVMOMAPL138_initRAMv
c3028624   _Z19thread_cond_destroyP4cond
c3012d34   _Z21EVMOMAPL138_enableDspv
c3036b40   _Z21__default_new_handlerv
c3012d64   _Z24EVMOMAPL138_pinmuxConfigmmm
c3012e00   _Z26EVMOMAPL138_lpscTransitionP10psc_regs_tmhh
c300d52c   _Z4Irmshh
c300d3e0   _Z4Urmshh
c300f280   _Z5GetIdv
c3012094   _Z5GetYxv
c300eaac   _Z5YkOuts7dcodata
c3023c40   _Z5debugiiPKcS0_iS0_z
c302f268   _Z5delaym
c302f284   _Z5sleepl
1171854c   _Z6AdCopyv
c300d914   _Z6ManSetv
11719fc4   _Z6PopSoehtP8soe_data
1171a078   _Z6SendYxv
1171f300   _Z6Swifftjj
c300e360   _Z6YkInitv
1171af48   _Z6YxInitv
c302f24c   _Z6mdelaym
11718060   _Z6nmifxnj
c301f420   _Z6tw_genPfi
c302f200   _Z6udelaym
c300d84c   _Z7AngleUIh
c300faf4   _Z7FpgaOuthhht
c3000000   _Z7GetMsg211MessageDataI12BaseDataTypeE
c3011c00   _Z7PushSoehtt
1171fb58   _Z7clk1Fxnj
1171fb84   _Z7clk2Fxnj
c3012420   _Z7fa_mainPv
c300e98c   _Z8CheckSynv
c300fc64   _Z8FpgaInitv
1171fb94   _Z8HwiTimerj
1171fb54   _Z8softtimev
c300ec94   _Z9ControlYks7dcodata
c3015fa4   _Z9OnGetDataPcm
c3016078   _Z9OnSetDataPcm
11719384   _Z9ProAdCopyv
c300f2b8   _Z9SendReadyh
c300e3d8   _Z9YkReadCfgm
11719920   _Z9YxReadCfgm
c3015f60   _Z9varm_mainPv
c3031fa0   _ZN10COMPARETAB6GetLabEv
c30349c0   _ZN10COMPARETABC1Ev
c302ebc0   _ZN10CURRENTPROC1Ev
c302b860   _ZN10DelayStart3funEv
c3032000   _ZN10DelayStart6ConfigE8NODEDATA
c3034a00   _ZN10DelayStartC1Ev
c3032060   _ZN10HIGHANALOG3funEv
c3034a40   _ZN10HIGHANALOG6ConfigE8NODEDATA
c3034a80   _ZN10HIGHANALOGC1Ev
c3036b60   _ZN10PassWdParaC1Ev
c3036b80   _ZN10Pro101ParaC1Ev
c3036ba0   _ZN10Pro104ParaC1Ev
c3036bc0   _ZN10ProtectSetC1Ev
c3036be0   _ZN10RecloseSetC1Ev
c30303a0   _ZN10StopConter3funEv
c3034ac0   _ZN10StopConter6ConfigE8NODEDATA
c3034b00   _ZN10StopConterC1Ev
c3027dc0   _ZN10_ScadaParaC1Ev
c3036c00   _ZN10__cxxabiv117__class_type_infoD0Ev
c3036c20   _ZN10__cxxabiv117__class_type_infoD1Ev
c3036c40   _ZN10__cxxabiv120__si_class_type_infoD0Ev
c3036c60   _ZN10__cxxabiv120__si_class_type_infoD1Ev
c3036c80   _ZN11ComBaseParaC1Ev
c302b940   _ZN11ConterSleep3funEv
c3034b40   _ZN11ConterSleep6ConfigE8NODEDATA
c3034b80   _ZN11ConterSleepC1Ev
c3036ca0   _ZN11DeadAreaSetC1Ev
c3034bc0   _ZN11HighCurrent7HighFunEff
c301d900   _ZN11PowerDirect5PdFunEv
c302d2a0   _ZN11StartConter3funEv
c30320c0   _ZN11StartConter6ConfigE8NODEDATA
c3034c00   _ZN11StartConterC1Ev
c3036cc0   _ZN11UserPortSetC1Ev
c302d360   _ZN12ANALOGSTEADY3funEv
c3032120   _ZN12ANALOGSTEADY6ConfigE8NODEDATA
c3034c40   _ZN12ANALOGSTEADYC1Ev
c302ba20   _ZN12ConterRuning3funEv
c3034c80   _ZN12ConterRuning6ConfigE8NODEDATA
c3034cc0   _ZN12ConterRuningC1Ev
c3034d00   _ZN12CurrentCheck10ReadSoeIRFEv
c3022760   _ZN12CurrentCheck3funEyt
c3029ca0   _ZN12CurrentCheckC1Ev
c3036ce0   _ZN12DbDigitInSetC1Ev
c3032180   _ZN12LOWANALOGTAB6GetLabEv
c3034d40   _ZN12LOWANALOGTABC1Ev
117134f8   _ZN12LocalProtect10BaseMdInitEv
c3011658   _ZN12LocalProtect3funEv
11715c40   _ZN12LocalProtect4InitEv
c30113c0   _ZN12LocalProtect7ParacpyEv
11715dac   _ZN12LocalProtect7ReadCfgEm
11713360   _ZN12LocalProtect8ParaInitEv
11715c60   _ZN12LocalProtect9GetParaIdEaa
c3030420   _ZN12LocalProtectC1Ev
c3034d80   _ZN12LocalProtectD1Ev
c3036d00   _ZN12WirelessParaC1Ev
c302bb00   _ZN13ConterReached3funEv
c3034dc0   _ZN13ConterReached6ConfigE8NODEDATA
c3034e00   _ZN13ConterReachedC1Ev
c30321e0   _ZN13DelayStartTAB6GetLabEv
c3034e40   _ZN13DelayStartTABC1Ev
c302d420   _ZN13DirecBaseCalc3FunE7complexS0_ff
c3036d20   _ZN13FaDevotionSetC1Ev
c3032240   _ZN13HIGHANALOGTAB6GetLabEv
c3034e80   _ZN13HIGHANALOGTABC1Ev
c3036d40   _ZN13ProtectDirSetC1Ev
c30322a0   _ZN13StopConterTAB6GetLabEv
c3034ec0   _ZN13StopConterTABC1Ev
c3032300   _ZN14ConterSleepTAB6GetLabEv
c3034f00   _ZN14ConterSleepTABC1Ev
c3036d60   _ZN14FaIsolationSetC1Ev
c3032360   _ZN14StartConterTAB6GetLabEv
c3034f40   _ZN14StartConterTABC1Ev
c30323c0   _ZN15ANALOGSTEADYTAB6GetLabEv
c3034f80   _ZN15ANALOGSTEADYTABC1Ev
c3034fc0   _ZN15ConterDelayPlus10StopConterEP9setmstime
c30304a0   _ZN15ConterDelayPlus11CheckConterEyP9setmstime
c3032420   _ZN15ConterDelayPlus11StartConterEmyP9setmstime
c3032480   _ZN15ConterRuningTAB6GetLabEv
c3035000   _ZN15ConterRuningTABC1Ev
c3026b40   _ZN15DelayStartDelay3funEv
c30324e0   _ZN15DelayStartDelay6ConfigE8NODEDATA
c3035040   _ZN15DelayStartDelayC1Ev
c3036d80   _ZN15FaConnectionSetC1Ev
c3032540   _ZN16ConterReachedTAB6GetLabEv
c3035080   _ZN16ConterReachedTABC1Ev
c3036da0   _ZN17HisDataDefineParaC1Ev
c30325a0   _ZN18DelayStartDelayTAB6GetLabEv
c30350c0   _ZN18DelayStartDelayTABC1Ev
c3029da0   _ZN19DelayStartDelayPlus19Plus01_T1_1_10_T2_0EbllyP13BASEPROSTATU2
c3036dc0   _ZN19UserRealDataDefParaC1Ev
1170d984   _ZN2FA13FunHandleInitEv
c3012738   _ZN2FA14FixTimeProtectEv
11710538   _ZN2FA3RunEv
1170d688   _ZN2FA4InitEv
1170d568   _ZN2FA7ReadCfgEm
1170d6a0   _ZN2FA8ParaInitEv
1170d2c0   _ZN2FA9GetParaIdEaa
c3012654   _ZN2FAC1Ev
c3036de0   _ZN2FAD1Ev
c3035100   _ZN2OR3funEv
c3035140   _ZN2OR6ConfigE8NODEDATA
c3035180   _ZN2ORC1Ev
c3003ae0   _ZN2daC1Ev
c302ec60   _ZN32DelayStartAndDelayStartDelayTime5TCel1EbmyP12BASEPROSTATU
c30351c0   _ZN3AND3funEv
c3035200   _ZN3AND6ConfigE8NODEDATA
c3035240   _ZN3ANDC1Ev
c3035280   _ZN3NOT3funEv
c30352c0   _ZN3NOT6ConfigE8NODEDATA
c3035300   _ZN3NOTC1Ev
c3032600   _ZN3XOR3funEv
c3035340   _ZN3XOR6ConfigE8NODEDATA
c3035380   _ZN3XORC1Ev
c30353c0   _ZN4NAND3funEv
c3035400   _ZN4NAND6ConfigE8NODEDATA
c3035440   _ZN4NANDC1Ev
c3013484   _ZN4Task10CheckHeartEv
c3013820   _ZN4Task10StopThreadEm
c3013650   _ZN4Task11StartThreadEm
c3013460   _ZN4Task4InitEv
c3013a78   _ZN4Task5HeartEm
c3013944   _ZN4Task6RegistEP7BaseAppPFPvS2_E
c3013420   _ZN4TaskC1Ev
c3013440   _ZN4TaskD1Ev
c3016610   _ZN4Varm12OnGetWaveMsgEv
c301624c   _ZN4Varm3RunEv
c30161c0   _ZN4Varm4InitEv
c3016394   _ZN4Varm8CheckMsgEv
c3016144   _ZN4VarmC1Ev
c3016188   _ZN4VarmD1Ev
c3032660   _ZN4XNOR3funEv
c3035480   _ZN4XNOR6ConfigE8NODEDATA
c30354c0   _ZN4XNORC1Ev
c300c52c   _ZN5Clock10CheckClockEP7settime
c300c6d8   _ZN5Clock10StartClockEP7settimehhhhht
c300c4a0   _ZN5Clock11StopMsClockEP9setmstime
c300c444   _ZN5Clock12CheckMsClockEP9setmstime
c300c4c8   _ZN5Clock12StartMsClockEP9setmstimey
c300cecc   _ZN5Clock13GetCP56Time2aEv
c300ce14   _ZN5Clock14getMicrosecondEv
c300ce2c   _ZN5Clock14getMillisecondEv
c300cfe4   _ZN5Clock14setMicrosecondEv
c300d018   _ZN5Clock14setMillisecondEv
c300c290   _ZN5Clock4tickEv
c300cd60   _ZN5Clock5getIdEv
c300ce88   _ZN5Clock6getDayEv
c300d10c   _ZN5Clock6setDayEv
c300ce70   _ZN5Clock7getHourEv
c300ceb4   _ZN5Clock7getYearEv
c300d0d8   _ZN5Clock7setHourEv
c300d358   _ZN5Clock7setYearEv
c300c844   _ZN5Clock8AndClockE9time_dataS0_
c300c2e4   _ZN5Clock8DTriggerEsmmP9setmstimeS1_
c300cd74   _ZN5Clock8GetSysMsEv
c300c384   _ZN5Clock8STriggerEsmP9setmstime
c300cea0   _ZN5Clock8getMonthEv
c300cd48   _ZN5Clock8getTicksEv
c300d318   _ZN5Clock8setMonthEv
c300c674   _ZN5Clock9StopClockEP7settime
c300ce58   _ZN5Clock9getMinuteEv
c300ce44   _ZN5Clock9getSecondEv
c300d0a4   _ZN5Clock9setMinuteEv
c300d06c   _ZN5Clock9setSecondEv
c300c1e0   _ZN5ClockC1Ei
c300c280   _ZN5ClockD1Ev
c3035500   _ZN5EQUAL3funEv
c3035540   _ZN5EQUAL6ConfigE8NODEDATA
c3035580   _ZN5EQUALC1Ev
c30326c0   _ZN5ORTAB6GetLabEv
c30355c0   _ZN5ORTABC1Ev
c3024900   _ZN5Pulse3funEv
c3030520   _ZN5Pulse6ConfigE8NODEDATA
c3035600   _ZN5PulseC1Ev
c30012c0   _ZN5Scada10CosSinz1z2E7complexS0_
c3001e08   _ZN5Scada10GetModulusEv
c3001a90   _ZN5Scada10GetYcAngleEhh
c3002bc4   _ZN5Scada11CalibrationEv
c3001b34   _ZN5Scada11GetCplAngleE7complex
c30014d0   _ZN5Scada11PhaseChangeEP7complexS1_tf
c3001bf8   _ZN5Scada12FloatCompareEff
c30029ac   _ZN5Scada13CheckDeadDataEv
c30016ec   _ZN5Scada13first_compareEPfS0_f
c3001ca8   _ZN5Scada14IsOverDeadbandEfff
c300158c   _ZN5Scada15ComplexRotationE7complexf
c30007f8   _ZN5Scada15GetHarmonicDataEv
c3000784   _ZN5Scada22GetHarmonicRmsAndRatioEfPf
c30039f0   _ZN5Scada3RunEv
1171dc74   _ZN5Scada4InitEv
c3003958   _ZN5Scada6GetMsgE11MessageDataI12BaseDataTypeE
c30022c8   _ZN5Scada6GetPQSEv
c3001fd8   _ZN5Scada6GetRmsEv
c3001788   _ZN5Scada7GetDeadEl
c3000a30   _ZN5Scada7PtAdaptEv
1171d910   _ZN5Scada7ReadCfgEm
c300160c   _ZN5Scada7compareEPfS0_S0_ff
c3001d70   _ZN5Scada8CaculateEv
c3000fcc   _ZN5Scada8GetPowerEhh
c3001734   _ZN5Scada8GetXishuEPfS0_S0_h
c3001cf0   _ZN5Scada8TotalRmsEPfh
c3036e00   _ZN5Scada8WriteCfgEv
1171d8c0   _ZN5ScadaC1Ev
c3036e20   _ZN5ScadaD1Ev
c3019504   _ZN5Stack3PopEa
c3019228   _ZN5Stack4PushE11MessageDataI12BaseDataTypeE
c3019390   _ZN5Stack4PushE11MessageDataI12BaseDataTypeEPc
c3019578   _ZN5Stack5FlushEv
c3036e40   _ZN5Stack6GetNumEv
c30191e0   _ZN5StackC1Ev
c3032720   _ZN6ANDTAB6GetLabEv
c3035640   _ZN6ANDTABC1Ev
c301a4c0   _ZN6ChzOut3FunEythh
c302d4e0   _ZN6ChzOutC1Ev
c3035680   _ZN6FAPARAC1Ev
c3032780   _ZN6LPPARAC1Ev
c30327e0   _ZN6NOTTAB6GetLabEv
c30356c0   _ZN6NOTTABC1Ev
c30305a0   _ZN6STEADY3funEv
c3035700   _ZN6STEADY6ConfigE8NODEDATA
c3035740   _ZN6STEADYC1Ev
c3032840   _ZN6XORTAB6GetLabEv
c3035780   _ZN6XORTABC1Ev
c3036e60   _ZN7BaseApp3RunEPv
c3036e80   _ZN7BaseApp4InitEv
c30357c0   _ZN7BaseApp6GetMsgE11MessageDataI12BaseDataTypeE
c3036ea0   _ZN7BaseApp7ReadCfgEv
c3036ec0   _ZN7BaseApp8WriteCfgEv
c3035800   _ZN7BaseAppC1Ev
c3036ee0   _ZN7BaseAppC2Ev
c3036f00   _ZN7BaseAppD1Ev
c3036f20   _ZN7BaseAppD2Ev
c3030620   _ZN7COMPARE3funEv
c30328a0   _ZN7COMPARE6ConfigE8NODEDATA
c3035840   _ZN7COMPAREC1Ev
c30306a0   _ZN7Counter11CheckConterEyP9setmstime
c3032900   _ZN7Counter11StartConterEmyP9setmstime
c3036f40   _ZN7EthParaC1Ev
c30152f8   _ZN7Message3RunEPv
c30152e4   _ZN7Message4InitEv
c3015524   _ZN7Message6GetMsgEmPP11MessageDataI12BaseDataTypeE
c3015374   _ZN7Message7SendMsgEmllP12BaseDataTypeP9time_data
c3015450   _ZN7Message7SendMsgEmllPcP9time_data
c30156c4   _ZN7Message8CheckMsgEv
c30155e0   _ZN7Message9RegistMsgEmPFs11MessageDataI12BaseDataTypeEE
c3015178   _ZN7MessageC1Ev
c3015258   _ZN7MessageD1Ev
c3032960   _ZN7NANDTAB6GetLabEv
c3035880   _ZN7NANDTABC1Ev
c30358c0   _ZN7NewToolI8BaseToolE3funEv
c302d5a0   _ZN7NewToolI8BaseToolE6ConfigE8NODEDATA
c3035900   _ZN7NewToolI8BaseToolEC1Ev
c3036f60   _ZN7NewToolI8BaseToolED1Ev
c3009a10   _ZN7SysLink11SysLinkFnitEv
c3009678   _ZN7SysLink11SysLinkInitEv
c300a034   _ZN7SysLink12OnCheckEventEPcj
c300a190   _ZN7SysLink12SetOnReadFunEPFmPcmE
c300a1a8   _ZN7SysLink13SetOnCheckFunEPFmPcmE
c300a178   _ZN7SysLink13SetOnWriteFunEPFsPcmE
c300a1c0   _ZN7SysLink18GetShareBufferAddrEv
c300a6cc   _ZN7SysLink18RegisterSharereionEt
c3009fb0   _ZN7SysLink6OnReadEPcj
c3009f4c   _ZN7SysLink7OnWriteEPcj
c300a12c   _ZN7SysLink7RecvCmdEv
c300a0a4   _ZN7SysLink7SendCmdEjj
c30329c0   _ZN7XNORTAB6GetLabEv
c3035940   _ZN7XNORTABC1Ev
c3030720   _ZN7_FaParaC1Ev
c3036f80   _ZN8BaseTool3funEv
c3036fa0   _ZN8BaseTool6ConfigE8NODEDATA
c3036fc0   _ZN8BaseToolC1Ev
c3036fe0   _ZN8BaseToolC2Ev
c3032a20   _ZN8EQUALTAB6GetLabEv
c3035980   _ZN8EQUALTABC1Ev
c3037000   _ZN8FaFunSetC1Ev
c3037020   _ZN8PowerWayC1Ev
c3032a80   _ZN8PulseTAB6GetLabEv
c30359c0   _ZN8PulseTABC1Ev
c3037040   _ZN8UartParaC1Ev
c300be08   _ZN8UserData10GetDataPtrEl
c300c0e0   _ZN8UserData10RecallDataEtt
c300baec   _ZN8UserData11GetDataSizeEl
c300bda8   _ZN8UserData11GetDataTypeEl
c300ac38   _ZN8UserData7GetDataElP4DataI12BaseDataTypeE
c300b324   _ZN8UserData7GetDataElP4DataI12BaseDataTypeEPc
c300af80   _ZN8UserData7SetDataElP4DataI12BaseDataTypeE
c300b784   _ZN8UserData7SetDataElPc
c300abe0   _ZN8UserDataC1Ev
c300ac20   _ZN8UserDataD1Ev
c3037060   _ZN8WarnParaC1Ev
c3037080   _ZN8YCMsgSetC1Ev
c30370a0   _ZN8YKMsgSetC1Ev
c30370c0   _ZN8YXMsgSetC1Ev
c3007120   _ZN8scada_ycC1Ev
c3032ae0   _ZN9ActionOut10ReadSoeIRFEt
c301b8c0   _ZN9ActionOut3funEytt
c301ed00   _ZN9ActionOutC1Ev
c30370e0   _ZN9DataType1C1Ev
c3037100   _ZN9DataType2C1Ev
c3037120   _ZN9DataType3C1Ev
c3035a00   _ZN9DataType4C1Ev
c3037140   _ZN9FaCommSetC1Ev
c3032b40   _ZN9LOWANALOG3funEv
c3035a40   _ZN9LOWANALOG6ConfigE8NODEDATA
c3035a80   _ZN9LOWANALOGC1Ev
c3032ba0   _ZN9STEADYTAB6GetLabEv
c3035ac0   _ZN9STEADYTABC1Ev
c3064320   _ZTI10DelayStart
c306432c   _ZTI10HIGHANALOG
c3064338   _ZTI10StopConter
c3064344   _ZTI11ConterSleep
c3064350   _ZTI11StartConter
c306435c   _ZTI12ANALOGSTEADY
c3064368   _ZTI12ConterRuning
c3064374   _ZTI13ConterReached
c3064380   _ZTI15DelayStartDelay
c306438c   _ZTI2FA
c3064398   _ZTI2OR
c30643a4   _ZTI3AND
c30643b0   _ZTI3NOT
c30643bc   _ZTI3XOR
c30643c8   _ZTI4NAND
c30643d4   _ZTI4Varm
c30643e0   _ZTI4XNOR
c30643ec   _ZTI5EQUAL
c30643f8   _ZTI5Pulse
c3064404   _ZTI5Scada
c3064410   _ZTI6STEADY
c30644fc   _ZTI7BaseApp
c306441c   _ZTI7COMPARE
c3064428   _ZTI7Message
c3064504   _ZTI8BaseTool
c3064434   _ZTI9LOWANALOG
c3064440   _ZTIN10__cxxabiv117__class_type_infoE
c306444c   _ZTIN10__cxxabiv120__si_class_type_infoE
c306450c   _ZTISt9type_info
c30642e0   _ZTS10DelayStart
c30642f0   _ZTS10HIGHANALOG
c3064300   _ZTS10StopConter
c30642c0   _ZTS11ConterSleep
c30642d0   _ZTS11StartConter
c30642a0   _ZTS12ANALOGSTEADY
c30642b0   _ZTS12ConterRuning
c3064110   _ZTS13ConterReached
c3064040   _ZTS15DelayStartDelay
c30645a0   _ZTS2FA
c30645a8   _ZTS2OR
c3064588   _ZTS3AND
c3064590   _ZTS3NOT
c3064598   _ZTS3XOR
c3064570   _ZTS4NAND
c3064578   _ZTS4Varm
c3064580   _ZTS4XNOR
c3064558   _ZTS5EQUAL
c3064560   _ZTS5Pulse
c3064568   _ZTS5Scada
c3064518   _ZTS6STEADY
c30644b0   _ZTS7BaseApp
c30644c0   _ZTS7COMPARE
c30644d0   _ZTS7Message
c30644a0   _ZTS8BaseTool
c3064480   _ZTS9LOWANALOG
c30638a0   _ZTSN10__cxxabiv117__class_type_infoE
c30636c8   _ZTSN10__cxxabiv120__si_class_type_infoE
c3064310   _ZTSSt9type_info
c3064120   _ZTV10DelayStart
c3064130   _ZTV10HIGHANALOG
c3064140   _ZTV10StopConter
c3064150   _ZTV11ConterSleep
c3064160   _ZTV11StartConter
c3064170   _ZTV12ANALOGSTEADY
c3064180   _ZTV12ConterRuning
c3064190   _ZTV13ConterReached
c30641a0   _ZTV15DelayStartDelay
c3063d08   _ZTV2FA
c30641b0   _ZTV2OR
c30641c0   _ZTV3AND
c30641d0   _ZTV3NOT
c30641e0   _ZTV3XOR
c30641f0   _ZTV4NAND
c3063d28   _ZTV4Varm
c3064200   _ZTV4XNOR
c3064210   _ZTV5EQUAL
c3064220   _ZTV5Pulse
c3063d48   _ZTV5Scada
c3064230   _ZTV6STEADY
c3063d68   _ZTV7BaseApp
c3064240   _ZTV7COMPARE
c3063d88   _ZTV7Message
c3064250   _ZTV8BaseTool
c3064260   _ZTV9LOWANALOG
c3064270   _ZTVN10__cxxabiv117__class_type_infoE
c3064280   _ZTVN10__cxxabiv120__si_class_type_infoE
c3063fe0   _ZZN10COMPARETAB6GetLabEvEs
c3063fc8   _ZZN12LOWANALOGTAB6GetLabEvEs
c3063e48   _ZZN12LocalProtectC1EvEs
c3063e60   _ZZN13DelayStartTAB6GetLabEvEs
c3063e78   _ZZN13HIGHANALOGTAB6GetLabEvEs
c3063e90   _ZZN13StopConterTAB6GetLabEvEs
c3063e08   _ZZN14ConterSleepTAB6GetLabEvEs
c3063e28   _ZZN14StartConterTAB6GetLabEvEs
c3063dc8   _ZZN15ANALOGSTEADYTAB6GetLabEvEs
c3063de8   _ZZN15ConterRuningTAB6GetLabEvEs
c3063da8   _ZZN16ConterReachedTAB6GetLabEvEs
c3063ce8   _ZZN18DelayStartDelayTAB6GetLabEvEs
c3064290   _ZZN5ORTAB6GetLabEvEs
c30640a0   _ZZN6ANDTAB6GetLabEvEs
c30640b8   _ZZN6NOTTAB6GetLabEvEs
c30640d0   _ZZN6XORTAB6GetLabEvEs
c3064058   _ZZN7NANDTAB6GetLabEvEs
c3064070   _ZZN7XNORTAB6GetLabEvEs
c3064010   _ZZN8EQUALTAB6GetLabEvEs
c3064028   _ZZN8PulseTAB6GetLabEvEs
c3064088   _ZZN9ActionOutC1EvEs
c3063ff8   _ZZN9STEADYTAB6GetLabEvEs
c3037160   _ZdaPv
c3037180   _ZdlPv
c30371a0   _Znaj
c302ed00   _Znwj
c3000000   __ASM__
c30659ec   __CIOBUF_
c3000060   __ISA__
c3000078   __PLAT__
c30000a0   __TARG__
c3065e88   __TI_INITARRAY_Base
c3065eb0   __TI_INITARRAY_Limit
c3065838   __TI_STACK_END
00001000   __TI_STACK_SIZE
c3065b10   __TI_STATIC_BASE
00000001   __TI_args_main
c305ff00   __TI_enable_exit_profile_output
ffffffff   __TI_pprof_out_hndl
ffffffff   __TI_prof_data_size
ffffffff   __TI_prof_data_start
c30000c8   __TRDR__
ffffffff   __binit__
c3017200   __c6xabi_divd
c301db80   __c6xabi_divf
c302bbe0   __c6xabi_divi
c3027ee0   __c6xabi_divlli
c302d720   __c6xabi_divu
c3023aa0   __c6xabi_divul
c301ef60   __c6xabi_divull
c3035b00   __c6xabi_frcmpyd_div
c3035b40   __c6xabi_isinf
c30307a0   __c6xabi_llshl
c3035bc0   __c6xabi_llshru
c30371c0   __c6xabi_negll
c302eda0   __c6xabi_nround
c302d7e0   __c6xabi_remi
c302ee40   __c6xabi_remu
c3035c40   __c6xabi_strasgi_64plus
c30371e0   __c6xabi_trunc
c3065e24   __c_args__
c3037200   __cxa_atexit
c302d660   __cxa_finalize
c3037220   __cxa_ia64_exit
c3032c00   __cxa_vec_ctor
c3035c00   __cxa_vec_dtor
c302bbe0   __divi
c302d720   __divu
c3065b68   __dso_handle
c3037240   __memzero
c302d7e0   __remi
c302ee40   __remu
c3015810   __sti___11_message_cpp_msg
c3011a88   __sti___16_localprotect_cpp_e267d684
c3012be0   __sti___6_fa_cpp_fa
c300f1e0   __sti___6_yk_cpp_d_5054
c3012340   __sti___6_yx_cpp_d_5085
c302bf18   __sti___7_dsp_cpp_task
c300c198   __sti___8_data_cpp_d772bfaa
c3016624   __sti___8_varm_cpp_varm
c300d38c   __sti___9_clock_cpp_clk0
c3003a94   __sti___9_scada_cpp_YcData
c3035c40   __strasgi_64plus
c3037260   __xdc__init
c305f2c4   __xdc__init__addr
c3035c80   _args_main
00000064   _argsize
c3026c80   _auto_init_elf
c302eee0   _c_int00
c302d8a0   _cleanup
c305fef8   _cleanup_ptr
c3062ee0   _ctypes_
c302da20   _doflush
c305fefc   _dtors_ptr
c305cb24   _ft_end
c305f2c8   _ftable
c3036ab8   _lock
c305fcac   _new_handler
c3037280   _nop
c3028360   _powf
c3017c20   _printfi
c3037320   _register_lock
c3037340   _register_unlock
c3064838   _stack
c3032c60   _subcull
c3059058   _tmpnams
c3036abc   _unlock
c3029fa0   _wrt_ok
c30373a0   abort
1171c4a0   ad_point
c3024a80   asin
c3022ea0   atan2sp
c30373c0   atexit
c302bcc0   atoi
ffffffff   binit
c3063070   bitval_u32
1171fca0   brev
c3065b7c   checkmd
c3059348   clk0
c3058d30   clk1
c3058d48   clk2
c3065b2c   clockList
c302bda0   close
c301be80   cos
c3028240   cossp
c3058a48   d_5054
c3053924   d_5085
c30539f4   d_5089
c3058a64   d_508A
c3055210   d_5090
c3058b34   d_5091
c3058b3c   d_5092
c3058b44   d_5093
c3058b4c   d_5094
c3054ad8   d_50AD
c3054bb0   d_50AE
c3054c88   d_50AF
c3054d60   d_520A
c3054d70   d_520B
c3054d80   d_520C
c3054d90   d_520D
c3058b54   d_6001
c3058b5c   d_6002
c3058b64   d_6066
c304fae0   data_buf
c3065b9a   enbIR
c305fc64   errno
c302bf60   exit
c3065b70   exit_flag
c3065e00   exp_ctable
c3036a80   exp_ktable
c3024c60   expsp
1171e4a0   fa
c3028000   fclose
c3065b7f   fen
c3065bb0   fftnum
c30308a0   fprintf
c3026f00   fputc
c301b5c0   fputs
c3035d40   free
c3028120   frexp
c302dae0   fseek
c3065b64   g_task
c3065b7e   he
c3058e70   hwiParams
c3065b96   led
c3065bac   linenum
c3035d80   llabs
c3024dc0   logsp
117105e0   lp
c3065b78   lpnum
c3065b7a   lpst
c302dba0   lseek
c302c040   ltoa
c302be80   main
c302f340   malloc
c3059018   man_set
c3032d80   memccpy
c302f3e0   memcpy
c302c120   memset
c302f480   modf
c3058b6c   msg
c3065b30   obj1
c3028360   powsp
c3030920   printf
c3065bae   protype
c3065bb8   ptr_w16
c3065bb4   ptr_w64
c30309a0   readmsg
c3037400   remove
11700000   scada
c3065bad   secnum
c3065b24   sem
c3058e4c   semparams
c3024f00   setvbuf
c301e080   sin
c3028494   sinsp
c3027180   sqrt
c302f520   sqrtsp
c3032e40   strcpy
c3032ea0   strpbrk
c3059268   syslink
c30582b0   task
c3063d24   ti_sdo_ipc_GateMP_E_gateUnavailable__C
c3063d44   ti_sdo_ipc_GateMP_E_localGate__C
c30195e0   ti_sdo_ipc_GateMP_Instance_finalize__F
c300fea0   ti_sdo_ipc_GateMP_Instance_init__F
c305ff40   ti_sdo_ipc_GateMP_Module_State_0_remoteCustom2Gates__A
c305e6f0   ti_sdo_ipc_GateMP_Module_State_0_remoteSystemGates__A
c306479c   ti_sdo_ipc_GateMP_Module__id__C
c305eef0   ti_sdo_ipc_GateMP_Module__root__V
c305eefc   ti_sdo_ipc_GateMP_Module__state__V
c3063904   ti_sdo_ipc_GateMP_Object__DESC__C
c306340c   ti_sdo_ipc_GateMP_Object__PARAMS__C
c302a1a0   ti_sdo_ipc_GateMP_Object__create__S
c3032f00   ti_sdo_ipc_GateMP_Object__delete__S
c3037420   ti_sdo_ipc_GateMP_Params__init__S
c3037440   ti_sdo_ipc_GateMP_RemoteCustom1Proxy_Object__create__S
c3037460   ti_sdo_ipc_GateMP_RemoteCustom1Proxy_Object__delete__S
c3037480   ti_sdo_ipc_GateMP_RemoteCustom1Proxy_Params__init__S
c30374a0   ti_sdo_ipc_GateMP_RemoteCustom1Proxy_Proxy__abstract__S
c30374c0   ti_sdo_ipc_GateMP_RemoteCustom1Proxy_Proxy__delegate__S
c30374e0   ti_sdo_ipc_GateMP_RemoteCustom1Proxy_getReservedMask__E
c3037500   ti_sdo_ipc_GateMP_RemoteCustom1Proxy_sharedMemReq__E
c3037520   ti_sdo_ipc_GateMP_RemoteCustom2Proxy_Object__create__S
c3037540   ti_sdo_ipc_GateMP_RemoteCustom2Proxy_Object__delete__S
c3037560   ti_sdo_ipc_GateMP_RemoteCustom2Proxy_Params__init__S
c3037580   ti_sdo_ipc_GateMP_RemoteCustom2Proxy_Proxy__abstract__S
c30375a0   ti_sdo_ipc_GateMP_RemoteCustom2Proxy_Proxy__delegate__S
c30375c0   ti_sdo_ipc_GateMP_RemoteCustom2Proxy_getReservedMask__E
c30375e0   ti_sdo_ipc_GateMP_RemoteCustom2Proxy_sharedMemReq__E
c3037600   ti_sdo_ipc_GateMP_RemoteSystemProxy_Object__create__S
c3037620   ti_sdo_ipc_GateMP_RemoteSystemProxy_Object__delete__S
c3037640   ti_sdo_ipc_GateMP_RemoteSystemProxy_Params__init__S
c3037660   ti_sdo_ipc_GateMP_RemoteSystemProxy_Proxy__abstract__S
c3037680   ti_sdo_ipc_GateMP_RemoteSystemProxy_Proxy__delegate__S
c30376a0   ti_sdo_ipc_GateMP_RemoteSystemProxy_getReservedMask__E
c30376c0   ti_sdo_ipc_GateMP_RemoteSystemProxy_sharedMemReq__E
c30376e0   ti_sdo_ipc_GateMP_attach__E
c302dc60   ti_sdo_ipc_GateMP_attach__F
c3032f60   ti_sdo_ipc_GateMP_createLocal__F
c3023060   ti_sdo_ipc_GateMP_getFreeResource__I
c3037700   ti_sdo_ipc_GateMP_getRegion0ReservedSize__E
c302f5c0   ti_sdo_ipc_GateMP_getRegion0ReservedSize__F
c3037720   ti_sdo_ipc_GateMP_getSharedAddr__E
c3037740   ti_sdo_ipc_GateMP_getSharedAddr__F
c3025c80   ti_sdo_ipc_GateMP_openRegion0Reserved__F
c3018080   ti_sdo_ipc_GateMP_setRegion0Reserved__F
c3037760   ti_sdo_ipc_GateMP_start__E
c302a2a0   ti_sdo_ipc_GateMP_start__F
c3063d64   ti_sdo_ipc_Ipc_E_internal__C
c3063d84   ti_sdo_ipc_Ipc_E_nameFailed__C
c3063da4   ti_sdo_ipc_Ipc_E_versionMismatch__C
c305fda0   ti_sdo_ipc_Ipc_Module_State_0_procEntry__A
c305ef44   ti_sdo_ipc_Ipc_Module__root__V
c305ef48   ti_sdo_ipc_Ipc_Module__state__V
c30647a0   ti_sdo_ipc_Ipc_generateSlaveDataForHost__C
c302c200   ti_sdo_ipc_Ipc_getMasterAddr__I
c3032fc0   ti_sdo_ipc_Ipc_getRegion0ReservedSize__I
c302c2e0   ti_sdo_ipc_Ipc_getSlaveAddr__I
c3063dc4   ti_sdo_ipc_Ipc_numUserFxns__C
c30219a0   ti_sdo_ipc_Ipc_procSyncFinish__I
c301cc40   ti_sdo_ipc_Ipc_procSyncStart__I
c3063de4   ti_sdo_ipc_Ipc_procSync__C
c3064468   ti_sdo_ipc_Ipc_userFxns__A
c3063e04   ti_sdo_ipc_Ipc_userFxns__C
c3025de0   ti_sdo_ipc_ListMP_Instance_finalize__F
c3018da0   ti_sdo_ipc_ListMP_Instance_init__F
c30647a4   ti_sdo_ipc_ListMP_Module__id__C
c305ef54   ti_sdo_ipc_ListMP_Module__root__V
c305ef60   ti_sdo_ipc_ListMP_Module__state__V
c3063924   ti_sdo_ipc_ListMP_Object__DESC__C
c3063500   ti_sdo_ipc_ListMP_Object__PARAMS__C
c302a3a0   ti_sdo_ipc_ListMP_Object__create__S
c3033020   ti_sdo_ipc_ListMP_Object__delete__S
c3037780   ti_sdo_ipc_ListMP_Params__init__S
c302dd20   ti_sdo_ipc_ListMP_elemClear__I
c3063e24   ti_sdo_ipc_MessageQ_Instance_State_highList__O
c3063e44   ti_sdo_ipc_MessageQ_Instance_State_normalList__O
c305fdf0   ti_sdo_ipc_MessageQ_Module_State_0_heaps__A
c305fed8   ti_sdo_ipc_MessageQ_Module_State_0_transports__A
c305ef64   ti_sdo_ipc_MessageQ_Module__root__V
c305ef70   ti_sdo_ipc_MessageQ_Module__state__V
c30377a0   ti_sdo_ipc_MessageQ_Module_startup__E
c30286c0   ti_sdo_ipc_MessageQ_Module_startup__F
c306400c   ti_sdo_ipc_MessageQ_Object__count__C
c30377c0   ti_sdo_ipc_MessageQ_Object__get__S
c30377e0   ti_sdo_ipc_MessageQ_SetupTransportProxy_attach__E
c3037800   ti_sdo_ipc_MessageQ_SetupTransportProxy_detach__E
c3037820   ti_sdo_ipc_MessageQ_SetupTransportProxy_isRegistered__E
c3037840   ti_sdo_ipc_MessageQ_SetupTransportProxy_sharedMemReq__E
c3037860   ti_sdo_ipc_MessageQ_registerTransport__E
c3035e00   ti_sdo_ipc_MessageQ_registerTransport__F
c3037880   ti_sdo_ipc_MessageQ_unregisterTransport__E
c3035e40   ti_sdo_ipc_MessageQ_unregisterTransport__F
c302a4a0   ti_sdo_ipc_Notify_Instance_finalize__F
c3025f40   ti_sdo_ipc_Notify_Instance_init__F
c30378a0   ti_sdo_ipc_Notify_Module_GateProxy_enter__E
c30378c0   ti_sdo_ipc_Notify_Module_GateProxy_leave__E
c305ff48   ti_sdo_ipc_Notify_Module_State_0_notifyHandles_0__A
c305ff50   ti_sdo_ipc_Notify_Module_State_0_notifyHandles_1__A
c305ff18   ti_sdo_ipc_Notify_Module_State_0_notifyHandles__A
c3064024   ti_sdo_ipc_Notify_Module__gateObj__C
c305ef8c   ti_sdo_ipc_Notify_Module__root__V
c305ef98   ti_sdo_ipc_Notify_Module__state__V
c30378e0   ti_sdo_ipc_Notify_Module_startup__E
c3030a20   ti_sdo_ipc_Notify_Module_startup__F
c3063944   ti_sdo_ipc_Notify_Object__DESC__C
c3063ea8   ti_sdo_ipc_Notify_Object__PARAMS__C
c30287e0   ti_sdo_ipc_Notify_Object__create__S
c3033080   ti_sdo_ipc_Notify_Object__delete__S
c306403c   ti_sdo_ipc_Notify_Object__heap__C
c3037900   ti_sdo_ipc_Notify_SetupProxy_attach__E
c3037920   ti_sdo_ipc_Notify_SetupProxy_numIntLines__E
c3037940   ti_sdo_ipc_Notify_SetupProxy_sharedMemReq__E
c3037960   ti_sdo_ipc_Notify_detach__E
c302c3c0   ti_sdo_ipc_Notify_detach__F
c302dde0   ti_sdo_ipc_Notify_execMany__I
c3037980   ti_sdo_ipc_Notify_exec__E
c3035e80   ti_sdo_ipc_Notify_exec__F
c3064054   ti_sdo_ipc_Notify_numEvents__C
c30647a8   ti_sdo_ipc_Notify_numLines__C
c306406c   ti_sdo_ipc_Notify_sendEventPollCount__C
c3064084   ti_sdo_ipc_SharedRegion_INVALIDSRPTR__C
c305f7c0   ti_sdo_ipc_SharedRegion_Module_State_0_regions__A
c305efa0   ti_sdo_ipc_SharedRegion_Module__root__V
c305efa4   ti_sdo_ipc_SharedRegion_Module__state__V
c30379a0   ti_sdo_ipc_SharedRegion_attach__E
c302a5a0   ti_sdo_ipc_SharedRegion_attach__F
c306409c   ti_sdo_ipc_SharedRegion_cacheLineSize__C
c30379c0   ti_sdo_ipc_SharedRegion_clearReservedMemory__E
c302a6a0   ti_sdo_ipc_SharedRegion_clearReservedMemory__F
c30647ac   ti_sdo_ipc_SharedRegion_numEntries__C
c30640b4   ti_sdo_ipc_SharedRegion_numOffsetBits__C
c30640cc   ti_sdo_ipc_SharedRegion_offsetMask__C
c30379e0   ti_sdo_ipc_SharedRegion_reserveMemory__E
c302c4a0   ti_sdo_ipc_SharedRegion_reserveMemory__F
c3037a00   ti_sdo_ipc_SharedRegion_resetInternalFields__E
c3035ec0   ti_sdo_ipc_SharedRegion_resetInternalFields__F
c3037a20   ti_sdo_ipc_SharedRegion_start__E
c30272c0   ti_sdo_ipc_SharedRegion_start__F
c30647b0   ti_sdo_ipc_SharedRegion_translate__C
c305efa8   ti_sdo_ipc_family_da830_InterruptDsp_Module__root__V
c3035f00   ti_sdo_ipc_family_da830_InterruptDsp_intClear__E
c3037a40   ti_sdo_ipc_family_da830_InterruptDsp_intDisable__E
c3037a60   ti_sdo_ipc_family_da830_InterruptDsp_intEnable__E
c302dea0   ti_sdo_ipc_family_da830_InterruptDsp_intRegister__E
c3035f40   ti_sdo_ipc_family_da830_InterruptDsp_intSend__E
c3037a80   ti_sdo_ipc_family_da830_InterruptDsp_intUnregister__E
c305efaa   ti_sdo_ipc_family_da830_NotifySetup_Module__root__V
c30640e4   ti_sdo_ipc_family_da830_NotifySetup_armRecvIntId0__C
c306410c   ti_sdo_ipc_family_da830_NotifySetup_armRecvIntId1__C
c3020200   ti_sdo_ipc_family_da830_NotifySetup_attach__E
c3064464   ti_sdo_ipc_family_da830_NotifySetup_dspIntVectId0__C
c306448c   ti_sdo_ipc_family_da830_NotifySetup_dspIntVectId1__C
c306449c   ti_sdo_ipc_family_da830_NotifySetup_dspRecvIntId0__C
c30644ac   ti_sdo_ipc_family_da830_NotifySetup_dspRecvIntId1__C
c3037aa0   ti_sdo_ipc_family_da830_NotifySetup_numIntLines__E
c3030aa0   ti_sdo_ipc_family_da830_NotifySetup_sharedMemReq__E
c30647b4   ti_sdo_ipc_family_da830_NotifySetup_useSecondLine__C
c30330e0   ti_sdo_ipc_gates_GateMPSupportNull_Handle__label__S
c3037ac0   ti_sdo_ipc_gates_GateMPSupportNull_Instance_init__F
c306352c   ti_sdo_ipc_gates_GateMPSupportNull_Module__FXNS__C
c305efac   ti_sdo_ipc_gates_GateMPSupportNull_Module__root__V
c3063964   ti_sdo_ipc_gates_GateMPSupportNull_Object__DESC__C
c30636f0   ti_sdo_ipc_gates_GateMPSupportNull_Object__PARAMS__C
c302f660   ti_sdo_ipc_gates_GateMPSupportNull_Object__create__S
c3033140   ti_sdo_ipc_gates_GateMPSupportNull_Object__delete__S
c3037ae0   ti_sdo_ipc_gates_GateMPSupportNull_Params__init__S
c3037b00   ti_sdo_ipc_gates_GateMPSupportNull_enter__E
c3037b20   ti_sdo_ipc_gates_GateMPSupportNull_getReservedMask__E
c3037b40   ti_sdo_ipc_gates_GateMPSupportNull_leave__E
c3037b60   ti_sdo_ipc_gates_GateMPSupportNull_query__E
c3037b80   ti_sdo_ipc_gates_GateMPSupportNull_query__F
c3037ba0   ti_sdo_ipc_gates_GateMPSupportNull_sharedMemReq__E
c30644bc   ti_sdo_ipc_gates_GatePeterson_E_gateRemotelyOpened__C
c30331a0   ti_sdo_ipc_gates_GatePeterson_Handle__label__S
c3033200   ti_sdo_ipc_gates_GatePeterson_Instance_finalize__F
c301e300   ti_sdo_ipc_gates_GatePeterson_Instance_init__F
c3063558   ti_sdo_ipc_gates_GatePeterson_Module__FXNS__C
c30647b8   ti_sdo_ipc_gates_GatePeterson_Module__id__C
c305efb8   ti_sdo_ipc_gates_GatePeterson_Module__root__V
c3063984   ti_sdo_ipc_gates_GatePeterson_Object__DESC__C
c3063714   ti_sdo_ipc_gates_GatePeterson_Object__PARAMS__C
c3028900   ti_sdo_ipc_gates_GatePeterson_Object__create__S
c3033260   ti_sdo_ipc_gates_GatePeterson_Object__delete__S
c3037bc0   ti_sdo_ipc_gates_GatePeterson_Params__init__S
c3025200   ti_sdo_ipc_gates_GatePeterson_enter__E
c3037be0   ti_sdo_ipc_gates_GatePeterson_getReservedMask__E
c302f700   ti_sdo_ipc_gates_GatePeterson_leave__E
c302df60   ti_sdo_ipc_gates_GatePeterson_postInit__I
c3037c00   ti_sdo_ipc_gates_GatePeterson_query__E
c3037c20   ti_sdo_ipc_gates_GatePeterson_query__F
c302c580   ti_sdo_ipc_gates_GatePeterson_sharedMemReq__E
c30644cc   ti_sdo_ipc_heaps_HeapMemMP_E_memory__C
c30332c0   ti_sdo_ipc_heaps_HeapMemMP_Handle__label__S
c30260a0   ti_sdo_ipc_heaps_HeapMemMP_Instance_finalize__F
c30184e0   ti_sdo_ipc_heaps_HeapMemMP_Instance_init__F
c30635b0   ti_sdo_ipc_heaps_HeapMemMP_Module__FXNS__C
c30647bc   ti_sdo_ipc_heaps_HeapMemMP_Module__id__C
c305efc4   ti_sdo_ipc_heaps_HeapMemMP_Module__root__V
c305efd0   ti_sdo_ipc_heaps_HeapMemMP_Module__state__V
c30639a4   ti_sdo_ipc_heaps_HeapMemMP_Object__DESC__C
c3063474   ti_sdo_ipc_heaps_HeapMemMP_Object__PARAMS__C
c302a7a0   ti_sdo_ipc_heaps_HeapMemMP_Object__create__S
c3033320   ti_sdo_ipc_heaps_HeapMemMP_Object__delete__S
c3037c40   ti_sdo_ipc_heaps_HeapMemMP_Params__init__S
c30199c0   ti_sdo_ipc_heaps_HeapMemMP_alloc__E
c301a840   ti_sdo_ipc_heaps_HeapMemMP_free__E
c3020440   ti_sdo_ipc_heaps_HeapMemMP_getStats__E
c3037c60   ti_sdo_ipc_heaps_HeapMemMP_isBlocking__E
c3037c80   ti_sdo_ipc_heaps_HeapMemMP_isBlocking__F
c3023220   ti_sdo_ipc_heaps_HeapMemMP_postInit__I
c30644dc   ti_sdo_ipc_interfaces_IGateMPSupport_Interface__BASE__C
c3064514   ti_sdo_ipc_interfaces_IMessageQTransport_Interface__BASE__C
c30645a4   ti_sdo_ipc_interfaces_INotifyDriver_Interface__BASE__C
c3033380   ti_sdo_ipc_notifyDrivers_NotifyDriverShm_Handle__label__S
c302f7a0   ti_sdo_ipc_notifyDrivers_NotifyDriverShm_Instance_finalize__F
c3021ba0   ti_sdo_ipc_notifyDrivers_NotifyDriverShm_Instance_init__F
c3037ca0   ti_sdo_ipc_notifyDrivers_NotifyDriverShm_InterruptProxy_intClear__E
c3037cc0   ti_sdo_ipc_notifyDrivers_NotifyDriverShm_InterruptProxy_intDisable__E
c3037ce0   ti_sdo_ipc_notifyDrivers_NotifyDriverShm_InterruptProxy_intEnable__E
c3037d00   ti_sdo_ipc_notifyDrivers_NotifyDriverShm_InterruptProxy_intRegister__E
c3037d20   ti_sdo_ipc_notifyDrivers_NotifyDriverShm_InterruptProxy_intSend__E
c3037d40   ti_sdo_ipc_notifyDrivers_NotifyDriverShm_InterruptProxy_intUnregister__E
c3063334   ti_sdo_ipc_notifyDrivers_NotifyDriverShm_Module__FXNS__C
c305efd4   ti_sdo_ipc_notifyDrivers_NotifyDriverShm_Module__root__V
c30639c4   ti_sdo_ipc_notifyDrivers_NotifyDriverShm_Object__DESC__C
c3063440   ti_sdo_ipc_notifyDrivers_NotifyDriverShm_Object__PARAMS__C
c302a8a0   ti_sdo_ipc_notifyDrivers_NotifyDriverShm_Object__create__S
c30333e0   ti_sdo_ipc_notifyDrivers_NotifyDriverShm_Object__delete__S
c30645ac   ti_sdo_ipc_notifyDrivers_NotifyDriverShm_Object__heap__C
c3037d60   ti_sdo_ipc_notifyDrivers_NotifyDriverShm_Params__init__S
c3027400   ti_sdo_ipc_notifyDrivers_NotifyDriverShm_disableEvent__E
c3037d80   ti_sdo_ipc_notifyDrivers_NotifyDriverShm_disable__E
c3033440   ti_sdo_ipc_notifyDrivers_NotifyDriverShm_enableEvent__E
c3037da0   ti_sdo_ipc_notifyDrivers_NotifyDriverShm_enable__E
c3025380   ti_sdo_ipc_notifyDrivers_NotifyDriverShm_isr__I
c3023de0   ti_sdo_ipc_notifyDrivers_NotifyDriverShm_registerEvent__E
c3021da0   ti_sdo_ipc_notifyDrivers_NotifyDriverShm_sendEvent__E
c30334a0   ti_sdo_ipc_notifyDrivers_NotifyDriverShm_setNotifyHandle__E
c3037dc0   ti_sdo_ipc_notifyDrivers_NotifyDriverShm_sharedMemReq__E
c3030b20   ti_sdo_ipc_notifyDrivers_NotifyDriverShm_sharedMemReq__F
c3023f80   ti_sdo_ipc_notifyDrivers_NotifyDriverShm_unregisterEvent__E
c3033500   ti_sdo_ipc_nsremote_NameServerRemoteNotify_Handle__label__S
c30645b4   ti_sdo_ipc_nsremote_NameServerRemoteNotify_Instance_State_semMultiBlock__O
c30645b8   ti_sdo_ipc_nsremote_NameServerRemoteNotify_Instance_State_semRemoteWait__O
c30645bc   ti_sdo_ipc_nsremote_NameServerRemoteNotify_Instance_State_swiObj__O
c302a9a0   ti_sdo_ipc_nsremote_NameServerRemoteNotify_Instance_finalize__F
c301c160   ti_sdo_ipc_nsremote_NameServerRemoteNotify_Instance_init__F
c30635d8   ti_sdo_ipc_nsremote_NameServerRemoteNotify_Module__FXNS__C
c30647c0   ti_sdo_ipc_nsremote_NameServerRemoteNotify_Module__id__C
c305efe0   ti_sdo_ipc_nsremote_NameServerRemoteNotify_Module__root__V
c30639e4   ti_sdo_ipc_nsremote_NameServerRemoteNotify_Object__DESC__C
c3063a04   ti_sdo_ipc_nsremote_NameServerRemoteNotify_Object__PARAMS__C
c3028a20   ti_sdo_ipc_nsremote_NameServerRemoteNotify_Object__create__S
c3033560   ti_sdo_ipc_nsremote_NameServerRemoteNotify_Object__delete__S
c3037de0   ti_sdo_ipc_nsremote_NameServerRemoteNotify_Object__first__S
c3037e00   ti_sdo_ipc_nsremote_NameServerRemoteNotify_Object__next__S
c3037e20   ti_sdo_ipc_nsremote_NameServerRemoteNotify_Params__init__S
c302e020   ti_sdo_ipc_nsremote_NameServerRemoteNotify_attach__E
c3037e40   ti_sdo_ipc_nsremote_NameServerRemoteNotify_cbFxn__I
c3030ba0   ti_sdo_ipc_nsremote_NameServerRemoteNotify_detach__E
c3037e60   ti_sdo_ipc_nsremote_NameServerRemoteNotify_get__E
c3018940   ti_sdo_ipc_nsremote_NameServerRemoteNotify_get__F
c30645c0   ti_sdo_ipc_nsremote_NameServerRemoteNotify_notifyEventId__C
c3035f80   ti_sdo_ipc_nsremote_NameServerRemoteNotify_sharedMemReq__E
c3020f60   ti_sdo_ipc_nsremote_NameServerRemoteNotify_swiFxn__I
c30645c4   ti_sdo_ipc_nsremote_NameServerRemoteNotify_timeout__C
c305ff20   ti_sdo_ipc_transports_TransportShmSetup_Module_State_0_handles__A
c305eff8   ti_sdo_ipc_transports_TransportShmSetup_Module__root__V
c305effc   ti_sdo_ipc_transports_TransportShmSetup_Module__state__V
c302aaa0   ti_sdo_ipc_transports_TransportShmSetup_attach__E
c302f840   ti_sdo_ipc_transports_TransportShmSetup_detach__E
c3037e80   ti_sdo_ipc_transports_TransportShmSetup_isRegistered__E
c30645c8   ti_sdo_ipc_transports_TransportShmSetup_priority__C
c30335c0   ti_sdo_ipc_transports_TransportShmSetup_sharedMemReq__E
c3033620   ti_sdo_ipc_transports_TransportShm_Handle__label__S
c30645cc   ti_sdo_ipc_transports_TransportShm_Instance_State_swiObj__O
c301cee0   ti_sdo_ipc_transports_TransportShm_Instance_finalize__F
c3015860   ti_sdo_ipc_transports_TransportShm_Instance_init__F
c3063600   ti_sdo_ipc_transports_TransportShm_Module__FXNS__C
c30647c4   ti_sdo_ipc_transports_TransportShm_Module__id__C
c305efec   ti_sdo_ipc_transports_TransportShm_Module__root__V
c3063a24   ti_sdo_ipc_transports_TransportShm_Object__DESC__C
c3063628   ti_sdo_ipc_transports_TransportShm_Object__PARAMS__C
c3028b40   ti_sdo_ipc_transports_TransportShm_Object__create__S
c3033680   ti_sdo_ipc_transports_TransportShm_Object__delete__S
c3037ea0   ti_sdo_ipc_transports_TransportShm_Params__init__S
c3037ec0   ti_sdo_ipc_transports_TransportShm_close__E
c3037ee0   ti_sdo_ipc_transports_TransportShm_close__F
c3037f00   ti_sdo_ipc_transports_TransportShm_control__E
c3037f20   ti_sdo_ipc_transports_TransportShm_getStatus__E
c30647c8   ti_sdo_ipc_transports_TransportShm_notifyEventId__C
c3037f40   ti_sdo_ipc_transports_TransportShm_notifyFxn__I
c3037f60   ti_sdo_ipc_transports_TransportShm_openByAddr__E
c3027540   ti_sdo_ipc_transports_TransportShm_openByAddr__F
c3027680   ti_sdo_ipc_transports_TransportShm_put__E
c3037f80   ti_sdo_ipc_transports_TransportShm_setErrFxn__E
c3037fa0   ti_sdo_ipc_transports_TransportShm_setErrFxn__F
c3037fc0   ti_sdo_ipc_transports_TransportShm_sharedMemReq__E
c3028c60   ti_sdo_ipc_transports_TransportShm_sharedMemReq__F
c3030c20   ti_sdo_ipc_transports_TransportShm_swiFxn__I
c30645d0   ti_sdo_utils_INameServerRemote_Interface__BASE__C
c3037fe0   ti_sdo_utils_List_Instance_init__F
c305f000   ti_sdo_utils_List_Module__root__V
c3063a44   ti_sdo_utils_List_Object__DESC__C
c3063ec0   ti_sdo_utils_List_Object__PARAMS__C
c3030ca0   ti_sdo_utils_List_Object__create__S
c3038000   ti_sdo_utils_List_Object__destruct__S
c3038020   ti_sdo_utils_List_Object__get__S
c3035fc0   ti_sdo_utils_List_get__E
c3036000   ti_sdo_utils_List_putHead__E
c3036040   ti_sdo_utils_List_put__E
c305f00c   ti_sdo_utils_MultiProc_Module__root__V
c305f00e   ti_sdo_utils_MultiProc_Module__state__V
c3038040   ti_sdo_utils_MultiProc_getClusterId__E
c3038060   ti_sdo_utils_MultiProc_getClusterId__F
c3064528   ti_sdo_utils_MultiProc_nameList__A
c30645d4   ti_sdo_utils_MultiProc_nameList__C
c30647cc   ti_sdo_utils_MultiProc_numProcessors__C
c30647d0   ti_sdo_utils_MultiProc_numProcsInCluster__C
c305f028   ti_sdo_utils_NameServerRemoteNull_Module__root__V
c30645d8   ti_sdo_utils_NameServer_E_entryExists__C
c30645dc   ti_sdo_utils_NameServer_E_maxReached__C
c30645e0   ti_sdo_utils_NameServer_Instance_State_freeList__O
c30645e4   ti_sdo_utils_NameServer_Instance_State_nameList__O
c3049aa8   ti_sdo_utils_NameServer_Module_State_0_nsRemoteHandle__A
c30647d4   ti_sdo_utils_NameServer_Module__id__C
c305f014   ti_sdo_utils_NameServer_Module__root__V
c3036080   ti_sdo_utils_NameServer_Module__startupDone__F
c3038080   ti_sdo_utils_NameServer_Module__startupDone__S
c305f020   ti_sdo_utils_NameServer_Module__state__V
c30380a0   ti_sdo_utils_NameServer_Module_startup__E
c302c660   ti_sdo_utils_NameServer_Module_startup__F
c30645e8   ti_sdo_utils_NameServer_Object__count__C
c30380c0   ti_sdo_utils_NameServer_Object__first__S
c30360c0   ti_sdo_utils_NameServer_Object__get__S
c30380e0   ti_sdo_utils_NameServer_Object__next__S
c305f640   ti_sdo_utils_NameServer_Object__table__V
c3038100   ti_sdo_utils_NameServer_SetupProxy_attach__E
c3038120   ti_sdo_utils_NameServer_SetupProxy_detach__E
c3038140   ti_sdo_utils_NameServer_SetupProxy_sharedMemReq__E
c302aba0   ti_sdo_utils_NameServer_findLocal__I
c302e0e0   ti_sdo_utils_NameServer_postInit__I
c3036100   ti_sdo_utils_NameServer_registerRemoteDriver__E
c3026200   ti_sdo_utils_NameServer_removeLocal__I
c3036140   ti_sdo_utils_NameServer_unregisterRemoteDriver__E
c305f034   ti_sysbios_BIOS_Module__root__V
c305f038   ti_sysbios_BIOS_Module__state__V
c3038160   ti_sysbios_BIOS_RtsGateProxy_enter__E
c3038180   ti_sysbios_BIOS_RtsGateProxy_leave__E
c302e1a0   ti_sysbios_BIOS_errorRaiseHook__I
c3030d20   ti_sysbios_BIOS_exitFunc__I
c30381a0   ti_sysbios_BIOS_getThreadType__E
c30645ec   ti_sysbios_BIOS_installedErrorHook__C
c30336e0   ti_sysbios_BIOS_registerRTSLock__I
c30381c0   ti_sysbios_BIOS_setThreadType__E
c3036180   ti_sysbios_BIOS_startFunc__I
c305f054   ti_sysbios_family_c62_IntrinsicsSupport_Module__root__V
c305f056   ti_sysbios_family_c62_TaskSupport_Module__root__V
c30381e0   ti_sysbios_family_c62_TaskSupport_Module__startupDone__S
c3035cc0   ti_sysbios_family_c62_TaskSupport_buildTaskStack
c3038200   ti_sysbios_family_c62_TaskSupport_checkStack__E
c3038220   ti_sysbios_family_c62_TaskSupport_getStackAlignment__E
c3037360   ti_sysbios_family_c62_TaskSupport_glue
c30645f0   ti_sysbios_family_c62_TaskSupport_stackAlignment__C
c3030da0   ti_sysbios_family_c62_TaskSupport_start__E
c3030820   ti_sysbios_family_c62_TaskSupport_swap__E
c30645f4   ti_sysbios_family_c64p_Cache_EMIFA_BASE__C
c30645f8   ti_sysbios_family_c64p_Cache_EMIFA_CFG__C
c30645fc   ti_sysbios_family_c64p_Cache_EMIFA_LENGTH__C
c3064600   ti_sysbios_family_c64p_Cache_EMIFB_BASE__C
c3064604   ti_sysbios_family_c64p_Cache_EMIFB_CFG__C
c3064608   ti_sysbios_family_c64p_Cache_EMIFB_LENGTH__C
c306460c   ti_sysbios_family_c64p_Cache_EMIFC_BASE__C
c3064610   ti_sysbios_family_c64p_Cache_EMIFC_CFG__C
c3064614   ti_sysbios_family_c64p_Cache_EMIFC_LENGTH__C
c3064618   ti_sysbios_family_c64p_Cache_MAR0_31__C
c306461c   ti_sysbios_family_c64p_Cache_MAR128_159__C
c3064620   ti_sysbios_family_c64p_Cache_MAR160_191__C
c3064624   ti_sysbios_family_c64p_Cache_MAR192_223__C
c3064628   ti_sysbios_family_c64p_Cache_MAR224_255__C
c306462c   ti_sysbios_family_c64p_Cache_MAR32_63__C
c3064630   ti_sysbios_family_c64p_Cache_MAR64_95__C
c3064634   ti_sysbios_family_c64p_Cache_MAR96_127__C
c305f058   ti_sysbios_family_c64p_Cache_Module__root__V
c305f05c   ti_sysbios_family_c64p_Cache_Module__state__V
c3038240   ti_sysbios_family_c64p_Cache_Module_startup__E
c3028d80   ti_sysbios_family_c64p_Cache_Module_startup__F
c3064474   ti_sysbios_family_c64p_Cache_initSize__C
c3038260   ti_sysbios_family_c64p_Cache_invL1pAll__E
c3038280   ti_sysbios_family_c64p_Cache_inv__E
c3033740   ti_sysbios_family_c64p_Cache_setMar__E
c30337a0   ti_sysbios_family_c64p_Cache_wait__E
c30382a0   ti_sysbios_family_c64p_Cache_wbInv__E
c3064638   ti_sysbios_family_c64p_Exception_E_exceptionMin__C
c30647d8   ti_sysbios_family_c64p_Exception_Module__id__C
c305f060   ti_sysbios_family_c64p_Exception_Module__root__V
c305f064   ti_sysbios_family_c64p_Exception_Module__state__V
c30382c0   ti_sysbios_family_c64p_Exception_Module_startup__E
c3033800   ti_sysbios_family_c64p_Exception_Module_startup__F
c3025080   ti_sysbios_family_c64p_Exception_dispatch__E
c306463c   ti_sysbios_family_c64p_Exception_exceptionHook__C
c3064640   ti_sysbios_family_c64p_Exception_externalHook__C
c3013b40   ti_sysbios_family_c64p_Exception_handler__I
c3020680   ti_sysbios_family_c64p_Exception_internalHandler__I
c3064644   ti_sysbios_family_c64p_Exception_internalHook__C
c3064648   ti_sysbios_family_c64p_Exception_nmiHook__C
c3065c00   ti_sysbios_family_c64p_Hwi0
c3065c20   ti_sysbios_family_c64p_Hwi1
c3065d40   ti_sysbios_family_c64p_Hwi10
c3065d60   ti_sysbios_family_c64p_Hwi11
c3065d80   ti_sysbios_family_c64p_Hwi12
c3065da0   ti_sysbios_family_c64p_Hwi13
c3065dc0   ti_sysbios_family_c64p_Hwi14
c3065de0   ti_sysbios_family_c64p_Hwi15
c3065c40   ti_sysbios_family_c64p_Hwi2
c3065c60   ti_sysbios_family_c64p_Hwi3
c3065c80   ti_sysbios_family_c64p_Hwi4
c3065ca0   ti_sysbios_family_c64p_Hwi5
c3065cc0   ti_sysbios_family_c64p_Hwi6
c3065ce0   ti_sysbios_family_c64p_Hwi7
c3065d00   ti_sysbios_family_c64p_Hwi8
c3065d20   ti_sysbios_family_c64p_Hwi9
c306464c   ti_sysbios_family_c64p_Hwi_E_alreadyDefined__C
c3030e20   ti_sysbios_family_c64p_Hwi_Instance_finalize__F
c302e260   ti_sysbios_family_c64p_Hwi_Instance_init__F
c30647dc   ti_sysbios_family_c64p_Hwi_Module__id__C
c305f090   ti_sysbios_family_c64p_Hwi_Module__root__V
c30361c0   ti_sysbios_family_c64p_Hwi_Module__startupDone__F
c30382e0   ti_sysbios_family_c64p_Hwi_Module__startupDone__S
c305f09c   ti_sysbios_family_c64p_Hwi_Module__state__V
c3038300   ti_sysbios_family_c64p_Hwi_Module_startup__E
c30277c0   ti_sysbios_family_c64p_Hwi_Module_startup__F
c3063a64   ti_sysbios_family_c64p_Hwi_Object__DESC__C
c30634a4   ti_sysbios_family_c64p_Hwi_Object__PARAMS__C
c3028ea0   ti_sysbios_family_c64p_Hwi_Object__create__S
c3033860   ti_sysbios_family_c64p_Hwi_Object__delete__S
c305fe90   ti_sysbios_family_c64p_Hwi_Object__table__V
c3038320   ti_sysbios_family_c64p_Hwi_Params__init__S
c3038340   ti_sysbios_family_c64p_Hwi_clearInterrupt__E
c3036200   ti_sysbios_family_c64p_Hwi_disableInterrupt__E
c30217a0   ti_sysbios_family_c64p_Hwi_dispatchAlways
c3026360   ti_sysbios_family_c64p_Hwi_dispatchC__I
c3036240   ti_sysbios_family_c64p_Hwi_enableInterrupt__E
c3030ea0   ti_sysbios_family_c64p_Hwi_eventMap__E
c3038360   ti_sysbios_family_c64p_Hwi_getHandle__E
c302f160   ti_sysbios_family_c64p_Hwi_plug__E
c30233e0   ti_sysbios_family_c64p_Hwi_reconfig__E
c3038380   ti_sysbios_family_c64p_Hwi_startup__E
c30383a0   ti_sysbios_family_c64p_Hwi_switchFromBootStack__E
c30383c0   ti_sysbios_family_c64p_Hwi_unPluggedInterrupt__I
c30383e0   ti_sysbios_family_c64p_TimestampProvider_Module_startup__E
c3038400   ti_sysbios_family_c64p_TimestampProvider_Module_startup__F
c3038420   ti_sysbios_family_c64p_TimestampProvider_get64__E
c305ff28   ti_sysbios_family_c64p_primus_TimerSupport_Module_State_0_suspSrc__A
c305f100   ti_sysbios_family_c64p_primus_TimerSupport_Module__root__V
c305f104   ti_sysbios_family_c64p_primus_TimerSupport_Module__state__V
c30338c0   ti_sysbios_family_c64p_primus_TimerSupport_enable__E
c3035d00   ti_sysbios_family_xxx_Hwi_switchToIsrStack
c3037380   ti_sysbios_family_xxx_Hwi_switchToTaskStack
c3033920   ti_sysbios_gates_GateAll_Handle__label__S
c3038440   ti_sysbios_gates_GateAll_Instance_init__F
c3063738   ti_sysbios_gates_GateAll_Module__FXNS__C
c305f108   ti_sysbios_gates_GateAll_Module__root__V
c3063a84   ti_sysbios_gates_GateAll_Object__DESC__C
c3063ed8   ti_sysbios_gates_GateAll_Object__PARAMS__C
c3030f20   ti_sysbios_gates_GateAll_Object__create__S
c3033980   ti_sysbios_gates_GateAll_Object__delete__S
c305fee8   ti_sysbios_gates_GateAll_Object__table__V
c30339e0   ti_sysbios_gates_GateAll_enter__E
c3036280   ti_sysbios_gates_GateAll_leave__E
c3038460   ti_sysbios_gates_GateAll_query__E
c3038480   ti_sysbios_gates_GateAll_query__F
c3033a40   ti_sysbios_gates_GateHwi_Handle__label__S
c30384a0   ti_sysbios_gates_GateHwi_Instance_init__F
c306375c   ti_sysbios_gates_GateHwi_Module__FXNS__C
c305f114   ti_sysbios_gates_GateHwi_Module__root__V
c3063aa4   ti_sysbios_gates_GateHwi_Object__DESC__C
c3063ef0   ti_sysbios_gates_GateHwi_Object__PARAMS__C
c3030fa0   ti_sysbios_gates_GateHwi_Object__create__S
c3033aa0   ti_sysbios_gates_GateHwi_Object__delete__S
c305ff58   ti_sysbios_gates_GateHwi_Object__table__V
c30384c0   ti_sysbios_gates_GateHwi_enter__E
c30384e0   ti_sysbios_gates_GateHwi_leave__E
c3038500   ti_sysbios_gates_GateHwi_query__E
c3038520   ti_sysbios_gates_GateHwi_query__F
c3033b00   ti_sysbios_gates_GateMutexPri_Handle__label__S
c3064650   ti_sysbios_gates_GateMutexPri_Instance_State_pendQ__O
c3038540   ti_sysbios_gates_GateMutexPri_Instance_finalize__F
c30362c0   ti_sysbios_gates_GateMutexPri_Instance_init__F
c3063780   ti_sysbios_gates_GateMutexPri_Module__FXNS__C
c305f12c   ti_sysbios_gates_GateMutexPri_Module__root__V
c3063ac4   ti_sysbios_gates_GateMutexPri_Object__DESC__C
c3063f08   ti_sysbios_gates_GateMutexPri_Object__PARAMS__C
c3031020   ti_sysbios_gates_GateMutexPri_Object__create__S
c3033b60   ti_sysbios_gates_GateMutexPri_Object__delete__S
c3036300   ti_sysbios_gates_GateMutexPri_Object__destruct__S
c305fea8   ti_sysbios_gates_GateMutexPri_Object__table__V
c3021fa0   ti_sysbios_gates_GateMutexPri_enter__E
c302aca0   ti_sysbios_gates_GateMutexPri_leave__E
c3038560   ti_sysbios_gates_GateMutexPri_query__E
c3038580   ti_sysbios_gates_GateMutexPri_query__F
c3033bc0   ti_sysbios_gates_GateMutex_Handle__label__S
c3064654   ti_sysbios_gates_GateMutex_Instance_State_sem__O
c30385a0   ti_sysbios_gates_GateMutex_Instance_finalize__F
c3033c20   ti_sysbios_gates_GateMutex_Instance_init__F
c30637a4   ti_sysbios_gates_GateMutex_Module__FXNS__C
c305f120   ti_sysbios_gates_GateMutex_Module__root__V
c3063ae4   ti_sysbios_gates_GateMutex_Object__DESC__C
c3063f20   ti_sysbios_gates_GateMutex_Object__PARAMS__C
c30310a0   ti_sysbios_gates_GateMutex_Object__create__S
c3033c80   ti_sysbios_gates_GateMutex_Object__delete__S
c305fd30   ti_sysbios_gates_GateMutex_Object__table__V
c3031120   ti_sysbios_gates_GateMutex_enter__E
c3036340   ti_sysbios_gates_GateMutex_leave__E
c30385c0   ti_sysbios_gates_GateMutex_query__E
c30385e0   ti_sysbios_gates_GateMutex_query__F
c3033ce0   ti_sysbios_gates_GateSwi_Handle__label__S
c3038600   ti_sysbios_gates_GateSwi_Instance_init__F
c30637c8   ti_sysbios_gates_GateSwi_Module__FXNS__C
c305f138   ti_sysbios_gates_GateSwi_Module__root__V
c3063b04   ti_sysbios_gates_GateSwi_Object__DESC__C
c3063f38   ti_sysbios_gates_GateSwi_Object__PARAMS__C
c30311a0   ti_sysbios_gates_GateSwi_Object__create__S
c3033d40   ti_sysbios_gates_GateSwi_Object__delete__S
c305ff08   ti_sysbios_gates_GateSwi_Object__table__V
c3038620   ti_sysbios_gates_GateSwi_enter__E
c3038640   ti_sysbios_gates_GateSwi_leave__E
c3038660   ti_sysbios_gates_GateSwi_query__E
c3038680   ti_sysbios_gates_GateSwi_query__F
c30386a0   ti_sysbios_hal_Cache_CacheProxy_inv__E
c30386c0   ti_sysbios_hal_Cache_CacheProxy_wbInv__E
c305f144   ti_sysbios_hal_Cache_Module__root__V
c30386e0   ti_sysbios_hal_Cache_inv__E
c3038700   ti_sysbios_hal_Cache_wbInv__E
c3064658   ti_sysbios_hal_Hwi_E_stackOverflow__C
c3038720   ti_sysbios_hal_Hwi_HwiProxy_Module__startupDone__S
c3038740   ti_sysbios_hal_Hwi_HwiProxy_Object__create__S
c3038760   ti_sysbios_hal_Hwi_HwiProxy_Object__delete__S
c3038780   ti_sysbios_hal_Hwi_HwiProxy_clearInterrupt__E
c30387a0   ti_sysbios_hal_Hwi_HwiProxy_disableInterrupt__E
c30387c0   ti_sysbios_hal_Hwi_HwiProxy_enableInterrupt__E
c30387e0   ti_sysbios_hal_Hwi_HwiProxy_startup__E
c3038800   ti_sysbios_hal_Hwi_HwiProxy_switchFromBootStack__E
c3036380   ti_sysbios_hal_Hwi_Instance_finalize__F
c3033da0   ti_sysbios_hal_Hwi_Instance_init__F
c30647e0   ti_sysbios_hal_Hwi_Module__id__C
c305f148   ti_sysbios_hal_Hwi_Module__root__V
c3038820   ti_sysbios_hal_Hwi_Module_startup__E
c3038840   ti_sysbios_hal_Hwi_Module_startup__F
c3063b24   ti_sysbios_hal_Hwi_Object__DESC__C
c3063584   ti_sysbios_hal_Hwi_Object__PARAMS__C
c3028fc0   ti_sysbios_hal_Hwi_Object__create__S
c3033e00   ti_sysbios_hal_Hwi_Object__delete__S
c305ff30   ti_sysbios_hal_Hwi_Object__table__V
c3038860   ti_sysbios_hal_Hwi_Params__init__S
c3033e60   ti_sysbios_hal_Hwi_checkStack
c3038880   ti_sysbios_hal_Hwi_enableInterrupt__E
c3033ec0   ti_sysbios_hal_Hwi_initStack
c30388a0   ti_sysbios_hal_Hwi_startup__E
c305f154   ti_sysbios_hal_Timer_Module__root__V
c30363c0   ti_sysbios_hal_Timer_Module__startupDone__F
c30388c0   ti_sysbios_hal_Timer_Module__startupDone__S
c30388e0   ti_sysbios_hal_Timer_Module_startup__E
c3038900   ti_sysbios_hal_Timer_Module_startup__F
c305ff38   ti_sysbios_hal_Timer_Object__table__V
c3038920   ti_sysbios_hal_Timer_TimerProxy_Module__startupDone__S
c3038940   ti_sysbios_hal_Timer_TimerProxy_getExpiredCounts__E
c3038960   ti_sysbios_hal_Timer_TimerProxy_getPeriod__E
c3038980   ti_sysbios_hal_Timer_TimerProxy_setNextTick__E
c30389a0   ti_sysbios_hal_Timer_TimerProxy_startup__E
c30389c0   ti_sysbios_hal_Timer_startup__E
c306465c   ti_sysbios_heaps_HeapMem_E_memory__C
c3033f20   ti_sysbios_heaps_HeapMem_Handle__label__S
c3049ab0   ti_sysbios_heaps_HeapMem_Instance_State_0_buf__A
c3031220   ti_sysbios_heaps_HeapMem_Instance_init__F
c30389e0   ti_sysbios_heaps_HeapMem_Module_GateProxy_enter__E
c3038a00   ti_sysbios_heaps_HeapMem_Module_GateProxy_leave__E
c3038a20   ti_sysbios_heaps_HeapMem_Module_GateProxy_query__E
c3063650   ti_sysbios_heaps_HeapMem_Module__FXNS__C
c3064660   ti_sysbios_heaps_HeapMem_Module__gateObj__C
c30647e4   ti_sysbios_heaps_HeapMem_Module__id__C
c305f160   ti_sysbios_heaps_HeapMem_Module__root__V
c3063b44   ti_sysbios_heaps_HeapMem_Object__DESC__C
c3063b64   ti_sysbios_heaps_HeapMem_Object__PARAMS__C
c3064664   ti_sysbios_heaps_HeapMem_Object__count__C
c30312a0   ti_sysbios_heaps_HeapMem_Object__create__S
c3033f80   ti_sysbios_heaps_HeapMem_Object__delete__S
c3036400   ti_sysbios_heaps_HeapMem_Object__get__S
c305fec0   ti_sysbios_heaps_HeapMem_Object__table__V
c3025500   ti_sysbios_heaps_HeapMem_alloc__E
c30264c0   ti_sysbios_heaps_HeapMem_free__E
c302e320   ti_sysbios_heaps_HeapMem_getStats__E
c302f8e0   ti_sysbios_heaps_HeapMem_init__I
c3038a40   ti_sysbios_heaps_HeapMem_isBlocking__E
c3064668   ti_sysbios_heaps_HeapMem_reqAlignMask__C
c306466c   ti_sysbios_heaps_HeapMem_reqAlign__C
c3036440   ti_sysbios_knl_Clock_Instance_finalize__F
c302f980   ti_sysbios_knl_Clock_Instance_init__F
c3064670   ti_sysbios_knl_Clock_Module_State_clockQ__O
c305f16c   ti_sysbios_knl_Clock_Module__root__V
c305f178   ti_sysbios_knl_Clock_Module__state__V
c3038a60   ti_sysbios_knl_Clock_Module_startup__E
c3031320   ti_sysbios_knl_Clock_Module_startup__F
c3063b84   ti_sysbios_knl_Clock_Object__DESC__C
c30637ec   ti_sysbios_knl_Clock_Object__PARAMS__C
c302fa20   ti_sysbios_knl_Clock_Object__create__S
c3036480   ti_sysbios_knl_Clock_Object__destruct__S
c3038a80   ti_sysbios_knl_Clock_Params__init__S
c302fac0   ti_sysbios_knl_Clock_doTick__I
c30313a0   ti_sysbios_knl_Clock_getTicks__E
c3038aa0   ti_sysbios_knl_Clock_logTick__E
c3033fe0   ti_sysbios_knl_Clock_setupTimerToSkipTicks__E
c302c740   ti_sysbios_knl_Clock_startI__E
c3064674   ti_sysbios_knl_Clock_tickMode__C
c3064678   ti_sysbios_knl_Clock_tickSource__C
c30290e0   ti_sysbios_knl_Clock_workFunc__E
c305f1a4   ti_sysbios_knl_Idle_Module__root__V
c3064680   ti_sysbios_knl_Idle_funcList__A
c3064530   ti_sysbios_knl_Idle_funcList__C
c302e3e0   ti_sysbios_knl_Idle_loop__E
c305f1a6   ti_sysbios_knl_Intrinsics_Module__root__V
c3038ac0   ti_sysbios_knl_Queue_Instance_init__F
c305f1a8   ti_sysbios_knl_Queue_Module__root__V
c3063ba4   ti_sysbios_knl_Queue_Object__DESC__C
c3063f50   ti_sysbios_knl_Queue_Object__PARAMS__C
c3031420   ti_sysbios_knl_Queue_Object__create__S
c3038ae0   ti_sysbios_knl_Queue_Object__destruct__S
c3038b00   ti_sysbios_knl_Queue_Object__get__S
c3038b20   ti_sysbios_knl_Queue_empty__E
c306467c   ti_sysbios_knl_Semaphore_Instance_State_pendQ__O
c3038b40   ti_sysbios_knl_Semaphore_Instance_finalize__F
c3034040   ti_sysbios_knl_Semaphore_Instance_init__F
c305f1b4   ti_sysbios_knl_Semaphore_Module__root__V
c3063bc4   ti_sysbios_knl_Semaphore_Object__DESC__C
c3063810   ti_sysbios_knl_Semaphore_Object__PARAMS__C
c302fb60   ti_sysbios_knl_Semaphore_Object__create__S
c30340a0   ti_sysbios_knl_Semaphore_Object__delete__S
c30364c0   ti_sysbios_knl_Semaphore_Object__destruct__S
c3038b60   ti_sysbios_knl_Semaphore_Params__init__S
c3034100   ti_sysbios_knl_Semaphore_pendTimeout__I
c30208c0   ti_sysbios_knl_Semaphore_pend__E
c302e4a0   ti_sysbios_knl_Semaphore_post__E
c3038b80   ti_sysbios_knl_Swi_Instance_finalize__F
c302fc00   ti_sysbios_knl_Swi_Instance_init__F
c305f960   ti_sysbios_knl_Swi_Module_State_0_readyQ__A
c305f1c0   ti_sysbios_knl_Swi_Module__root__V
c305f1cc   ti_sysbios_knl_Swi_Module__state__V
c3038ba0   ti_sysbios_knl_Swi_Module_startup__E
c3034160   ti_sysbios_knl_Swi_Module_startup__F
c3063be4   ti_sysbios_knl_Swi_Object__DESC__C
c3063678   ti_sysbios_knl_Swi_Object__PARAMS__C
c3064684   ti_sysbios_knl_Swi_Object__count__C
c3029200   ti_sysbios_knl_Swi_Object__create__S
c3036500   ti_sysbios_knl_Swi_Object__destruct__S
c3036540   ti_sysbios_knl_Swi_Object__get__S
c305fd70   ti_sysbios_knl_Swi_Object__table__V
c3038bc0   ti_sysbios_knl_Swi_Params__init__S
c3038be0   ti_sysbios_knl_Swi_disable__E
c302fca0   ti_sysbios_knl_Swi_post__E
c302ada0   ti_sysbios_knl_Swi_restoreHwi__E
c30314a0   ti_sysbios_knl_Swi_restore__E
c302e560   ti_sysbios_knl_Swi_run__I
c3025680   ti_sysbios_knl_Swi_schedule__I
c3031520   ti_sysbios_knl_Swi_startup__E
c3064688   ti_sysbios_knl_Task_E_spOutOfBounds__C
c306468c   ti_sysbios_knl_Task_E_stackOverflow__C
c304dab0   ti_sysbios_knl_Task_Instance_State_0_hookEnv__A
c3057ab0   ti_sysbios_knl_Task_Instance_State_0_stack__A
c30221a0   ti_sysbios_knl_Task_Instance_finalize__F
c3024120   ti_sysbios_knl_Task_Instance_init__F
c305f9e0   ti_sysbios_knl_Task_Module_State_0_readyQ__A
c3064690   ti_sysbios_knl_Task_Module_State_inactiveQ__O
c3064694   ti_sysbios_knl_Task_Module_State_terminatedQ__O
c30647e8   ti_sysbios_knl_Task_Module__id__C
c305f1e8   ti_sysbios_knl_Task_Module__root__V
c305f1f4   ti_sysbios_knl_Task_Module__state__V
c3038c00   ti_sysbios_knl_Task_Module_startup__E
c3027900   ti_sysbios_knl_Task_Module_startup__F
c3063c04   ti_sysbios_knl_Task_Object__DESC__C
c306336c   ti_sysbios_knl_Task_Object__PARAMS__C
c3064698   ti_sysbios_knl_Task_Object__count__C
c3029320   ti_sysbios_knl_Task_Object__create__S
c30341c0   ti_sysbios_knl_Task_Object__delete__S
c3038c20   ti_sysbios_knl_Task_Object__first__S
c3036580   ti_sysbios_knl_Task_Object__get__S
c306469c   ti_sysbios_knl_Task_Object__heap__C
c3038c40   ti_sysbios_knl_Task_Object__next__S
c305fc68   ti_sysbios_knl_Task_Object__table__V
c3038c60   ti_sysbios_knl_Task_Params__init__S
c3038c80   ti_sysbios_knl_Task_SupportProxy_Module__startupDone__S
c3038ca0   ti_sysbios_knl_Task_SupportProxy_checkStack__E
c3038cc0   ti_sysbios_knl_Task_SupportProxy_getStackAlignment__E
c3038ce0   ti_sysbios_knl_Task_SupportProxy_start__E
c3038d00   ti_sysbios_knl_Task_SupportProxy_swap__E
c30646a0   ti_sysbios_knl_Task_allBlockedFunc__C
c3034220   ti_sysbios_knl_Task_allBlockedFunction__I
c30235a0   ti_sysbios_knl_Task_checkStacks__E
c30646a4   ti_sysbios_knl_Task_defaultStackHeap__C
c30646a8   ti_sysbios_knl_Task_defaultStackSize__C
c30647ec   ti_sysbios_knl_Task_deleteTerminatedTasks__C
c3038d20   ti_sysbios_knl_Task_disable__E
c3034280   ti_sysbios_knl_Task_enter__I
c3021180   ti_sysbios_knl_Task_exit__E
c3038d40   ti_sysbios_knl_Task_getPri__E
c3063f68   ti_sysbios_knl_Task_hooks__A
c3064538   ti_sysbios_knl_Task_hooks__C
c30647f0   ti_sysbios_knl_Task_initStackFlag__C
c30646ac   ti_sysbios_knl_Task_numConstructedTasks__C
c3022940   ti_sysbios_knl_Task_postInit__I
c30315a0   ti_sysbios_knl_Task_restore__E
c3025800   ti_sysbios_knl_Task_schedule__I
c3038d60   ti_sysbios_knl_Task_self__E
c3025980   ti_sysbios_knl_Task_setPri__E
c30365c0   ti_sysbios_knl_Task_sleepTimeout__I
c3027a40   ti_sysbios_knl_Task_sleep__E
c3026620   ti_sysbios_knl_Task_startup__E
c302c820   ti_sysbios_knl_Task_unblockI__E
c3031620   ti_sysbios_knl_Task_yield__E
c305f228   ti_sysbios_syncs_SyncSem_Module__root__V
c30646b0   ti_sysbios_timers_timer64_Timer_E_cannotSupport__C
c30646b4   ti_sysbios_timers_timer64_Timer_E_invalidTimer__C
c30646b8   ti_sysbios_timers_timer64_Timer_E_notAvailable__C
c30316a0   ti_sysbios_timers_timer64_Timer_Instance_finalize__F
c3016660   ti_sysbios_timers_timer64_Timer_Instance_init__F
c305fbb8   ti_sysbios_timers_timer64_Timer_Module_State_0_device__A
c305fe10   ti_sysbios_timers_timer64_Timer_Module_State_0_gctrl__A
c305fe30   ti_sysbios_timers_timer64_Timer_Module_State_0_handles__A
c305fe50   ti_sysbios_timers_timer64_Timer_Module_State_0_intFreqs__A
c30647f4   ti_sysbios_timers_timer64_Timer_Module__id__C
c305f234   ti_sysbios_timers_timer64_Timer_Module__root__V
c3036600   ti_sysbios_timers_timer64_Timer_Module__startupDone__F
c3038d80   ti_sysbios_timers_timer64_Timer_Module__startupDone__S
c305f240   ti_sysbios_timers_timer64_Timer_Module__state__V
c3038da0   ti_sysbios_timers_timer64_Timer_Module_startup__E
c301b2a0   ti_sysbios_timers_timer64_Timer_Module_startup__F
c3063c24   ti_sysbios_timers_timer64_Timer_Object__DESC__C
c306316c   ti_sysbios_timers_timer64_Timer_Object__PARAMS__C
c3029440   ti_sysbios_timers_timer64_Timer_Object__create__S
c305fc18   ti_sysbios_timers_timer64_Timer_Object__table__V
c3038dc0   ti_sysbios_timers_timer64_Timer_Params__init__S
c3038de0   ti_sysbios_timers_timer64_Timer_TimerSupportProxy_enable__E
c30646bc   ti_sysbios_timers_timer64_Timer_anyMask__C
c30646c0   ti_sysbios_timers_timer64_Timer_defaultHalf__C
c30646c4   ti_sysbios_timers_timer64_Timer_freqDivisor__C
c3031720   ti_sysbios_timers_timer64_Timer_getExpiredCounts__E
c30317a0   ti_sysbios_timers_timer64_Timer_getPeriod__E
c30646c8   ti_sysbios_timers_timer64_Timer_numLocalTimers__C
c30646cc   ti_sysbios_timers_timer64_Timer_numTimerDevices__C
c3038e00   ti_sysbios_timers_timer64_Timer_setNextTick__E
c301f680   ti_sysbios_timers_timer64_Timer_setPeriodMicroSecs__E
c30242c0   ti_sysbios_timers_timer64_Timer_start__E
c30647f8   ti_sysbios_timers_timer64_Timer_startupNeeded__C
c302c900   ti_sysbios_timers_timer64_Timer_startup__E
c302e620   ti_sysbios_timers_timer64_Timer_stop__E
c30646d0   ti_sysbios_xdcruntime_GateThreadSupport_Instance_State_gate__O
c3038e20   ti_sysbios_xdcruntime_GateThreadSupport_Instance_finalize__F
c3036640   ti_sysbios_xdcruntime_GateThreadSupport_Instance_init__F
c305f254   ti_sysbios_xdcruntime_GateThreadSupport_Module__root__V
c3063c44   ti_sysbios_xdcruntime_GateThreadSupport_Object__DESC__C
c3063f80   ti_sysbios_xdcruntime_GateThreadSupport_Object__PARAMS__C
c3031820   ti_sysbios_xdcruntime_GateThreadSupport_Object__create__S
c30342e0   ti_sysbios_xdcruntime_GateThreadSupport_Object__delete__S
c3038e40   ti_sysbios_xdcruntime_GateThreadSupport_enter__E
c3038e60   ti_sysbios_xdcruntime_GateThreadSupport_enter__F
c3038e80   ti_sysbios_xdcruntime_GateThreadSupport_leave__E
c3038ea0   ti_sysbios_xdcruntime_GateThreadSupport_leave__F
c3038ec0   ti_sysbios_xdcruntime_GateThreadSupport_query__E
c3038ee0   ti_sysbios_xdcruntime_GateThreadSupport_query__F
c3034340   ti_syslink_ipc_rtos_Syslink_attach
c3036680   ti_syslink_ipc_rtos_Syslink_detach
c3065b40   time1
c3065b48   time2
c3065b50   time3
c30318a0   unlink
c304fab8   user_data
c3039a10   varm
c3065b6c   varm_sem
1171f0e8   w16
1171eee8   w64
c302e6e0   write
c30343a0   writemsg
c30646d4   xdc_runtime_Assert_E_assertFailed__C
c302fd40   xdc_runtime_Assert_raise__I
c30646d8   xdc_runtime_Core_A_initializedParams__C
c30646dc   xdc_runtime_Core_Module__diagsEnabled__C
c30646e0   xdc_runtime_Core_Module__diagsIncluded__C
c30646e4   xdc_runtime_Core_Module__diagsMask__C
c30647fc   xdc_runtime_Core_Module__id__C
c3031920   xdc_runtime_Core_assignLabel__I
c30319a0   xdc_runtime_Core_assignParams__I
c301e580   xdc_runtime_Core_createObject__I
c302aea0   xdc_runtime_Core_deleteObject__I
c305f260   xdc_runtime_Defaults_Module__root__V
c30646e8   xdc_runtime_Diags_dictBase__C
c305f4a8   xdc_runtime_Diags_dictElems
c3064800   xdc_runtime_Diags_setMaskEnabled__C
c3038f00   xdc_runtime_Diags_setMask__E
c301abc0   xdc_runtime_Diags_setMask__F
c30646ec   xdc_runtime_Error_E_generic__C
c30646f0   xdc_runtime_Error_E_memory__C
c30646f4   xdc_runtime_Error_Module__diagsEnabled__C
c30646f8   xdc_runtime_Error_Module__diagsIncluded__C
c30646fc   xdc_runtime_Error_Module__diagsMask__C
c3064804   xdc_runtime_Error_Module__loggerDefined__C
c3064700   xdc_runtime_Error_Module__loggerFxn8__C
c3064704   xdc_runtime_Error_Module__loggerObj__C
c305f262   xdc_runtime_Error_Module__root__V
c305f264   xdc_runtime_Error_Module__state__V
c3038f20   xdc_runtime_Error_check__E
c30366c0   xdc_runtime_Error_check__F
c3038f40   xdc_runtime_Error_init__E
c3036700   xdc_runtime_Error_init__F
c3064808   xdc_runtime_Error_maxDepth__C
c3064708   xdc_runtime_Error_policy__C
c3038f60   xdc_runtime_Error_print__E
c302c9e0   xdc_runtime_Error_print__F
c306470c   xdc_runtime_Error_raiseHook__C
c3038f80   xdc_runtime_Error_raiseX__E
c301e800   xdc_runtime_Error_raiseX__F
c3034400   xdc_runtime_GateNull_Handle__label__S
c3063834   xdc_runtime_GateNull_Module__FXNS__C
c305f268   xdc_runtime_GateNull_Module__root__V
c3063c64   xdc_runtime_GateNull_Object__DESC__C
c3063f98   xdc_runtime_GateNull_Object__PARAMS__C
c3034460   xdc_runtime_GateNull_Object__create__S
c30344c0   xdc_runtime_GateNull_Object__delete__S
c305ff60   xdc_runtime_GateNull_Object__table__V
c3038fa0   xdc_runtime_GateNull_enter__E
c3038fc0   xdc_runtime_GateNull_enter__F
c3038fe0   xdc_runtime_GateNull_leave__E
c3039000   xdc_runtime_GateNull_leave__F
c3039020   xdc_runtime_GateNull_query__E
c3039040   xdc_runtime_GateNull_query__F
c3039060   xdc_runtime_Gate_enterSystem__E
c3039080   xdc_runtime_Gate_enterSystem__F
c30390a0   xdc_runtime_Gate_leaveSystem__E
c30390c0   xdc_runtime_Gate_leaveSystem__F
c3064710   xdc_runtime_IFilterLogger_Interface__BASE__C
c3064714   xdc_runtime_IGateProvider_Interface__BASE__C
c3064718   xdc_runtime_IHeap_Interface__BASE__C
c306471c   xdc_runtime_ILogger_Interface__BASE__C
c3064720   xdc_runtime_IModule_Interface__BASE__C
c3064724   xdc_runtime_Log_L_error__C
c3064728   xdc_runtime_LoggerBuf_E_badLevel__C
c3034520   xdc_runtime_LoggerBuf_Handle__label__S
c304dab8   xdc_runtime_LoggerBuf_Instance_State_0_entryArr__A
c3036740   xdc_runtime_LoggerBuf_Instance_finalize__F
c302e7a0   xdc_runtime_LoggerBuf_Instance_init__F
c3039120   xdc_runtime_LoggerBuf_Module_GateProxy_enter__E
c3039140   xdc_runtime_LoggerBuf_Module_GateProxy_leave__E
c30632f8   xdc_runtime_LoggerBuf_Module__FXNS__C
c306472c   xdc_runtime_LoggerBuf_Module__gateObj__C
c306480c   xdc_runtime_LoggerBuf_Module__id__C
c305f270   xdc_runtime_LoggerBuf_Module__root__V
c305f278   xdc_runtime_LoggerBuf_Module__state__V
c3039160   xdc_runtime_LoggerBuf_Module_startup__E
c302fde0   xdc_runtime_LoggerBuf_Module_startup__F
c3063c84   xdc_runtime_LoggerBuf_Object__DESC__C
c30636a0   xdc_runtime_LoggerBuf_Object__PARAMS__C
c3064730   xdc_runtime_LoggerBuf_Object__count__C
c302afa0   xdc_runtime_LoggerBuf_Object__create__S
c3034580   xdc_runtime_LoggerBuf_Object__delete__S
c3036780   xdc_runtime_LoggerBuf_Object__get__S
c305fdc8   xdc_runtime_LoggerBuf_Object__table__V
c3039180   xdc_runtime_LoggerBuf_TimestampProxy_get64__E
c30391a0   xdc_runtime_LoggerBuf_disable__E
c30391c0   xdc_runtime_LoggerBuf_disable__F
c30391e0   xdc_runtime_LoggerBuf_enable__E
c3039200   xdc_runtime_LoggerBuf_enable__F
c3064810   xdc_runtime_LoggerBuf_filterByLevel__C
c3031a20   xdc_runtime_LoggerBuf_filterOutEvent__I
c3039220   xdc_runtime_LoggerBuf_getFilterLevel__E
c302b0a0   xdc_runtime_LoggerBuf_getFilterLevel__F
c3039240   xdc_runtime_LoggerBuf_setFilterLevel__E
c3029560   xdc_runtime_LoggerBuf_setFilterLevel__F
c3064734   xdc_runtime_LoggerBuf_statusLogger__C
c3039260   xdc_runtime_LoggerBuf_write0__E
c30367c0   xdc_runtime_LoggerBuf_write0__F
c3039280   xdc_runtime_LoggerBuf_write1__E
c30392a0   xdc_runtime_LoggerBuf_write1__F
c30392c0   xdc_runtime_LoggerBuf_write2__E
c30392e0   xdc_runtime_LoggerBuf_write2__F
c3039300   xdc_runtime_LoggerBuf_write4__E
c3024460   xdc_runtime_LoggerBuf_write4__F
c3036800   xdc_runtime_LoggerBuf_write8__E
c3020b00   xdc_runtime_LoggerBuf_write8__F
c3064738   xdc_runtime_Main_Module__diagsEnabled__C
c306473c   xdc_runtime_Main_Module__diagsIncluded__C
c3064740   xdc_runtime_Main_Module__diagsMask__C
c3064814   xdc_runtime_Main_Module__id__C
c3064818   xdc_runtime_Main_Module__loggerDefined__C
c3064744   xdc_runtime_Main_Module__loggerFxn1__C
c3064748   xdc_runtime_Main_Module__loggerFxn2__C
c306474c   xdc_runtime_Main_Module__loggerFxn4__C
c3064750   xdc_runtime_Main_Module__loggerObj__C
c305f27e   xdc_runtime_Main_Module__root__V
c3039320   xdc_runtime_Memory_HeapProxy_alloc__E
c3039340   xdc_runtime_Memory_HeapProxy_free__E
c306481c   xdc_runtime_Memory_Module__id__C
c305f280   xdc_runtime_Memory_Module__state__V
c3039360   xdc_runtime_Memory_alloc__E
c302cac0   xdc_runtime_Memory_alloc__F
c3039380   xdc_runtime_Memory_calloc__E
c30345e0   xdc_runtime_Memory_calloc__F
c3064754   xdc_runtime_Memory_defaultHeapInstance__C
c30393a0   xdc_runtime_Memory_free__E
c3036840   xdc_runtime_Memory_free__F
c30393c0   xdc_runtime_Memory_getMaxDefaultTypeAlign__E
c30393e0   xdc_runtime_Memory_getMaxDefaultTypeAlign__F
c3039400   xdc_runtime_Memory_valloc__E
c3034640   xdc_runtime_Memory_valloc__F
c3064758   xdc_runtime_Registry_Module__diagsMask__C
c305f284   xdc_runtime_Registry_Module__root__V
c305f288   xdc_runtime_Registry_Module__state__V
c302cba0   xdc_runtime_Registry_addModule__E
c302fe80   xdc_runtime_Registry_addModule__F
c302cc80   xdc_runtime_Registry_findById__E
c3036880   xdc_runtime_Registry_findById__F
c302b1a0   xdc_runtime_Registry_findByNamePattern__E
c3031aa0   xdc_runtime_Registry_findByNamePattern__F
c302ff20   xdc_runtime_Registry_findByName__F
c3031b20   xdc_runtime_Registry_matchPattern__I
c3039420   xdc_runtime_Startup_Module__startupDone__S
c305f290   xdc_runtime_Startup_Module__state__V
00000001   xdc_runtime_Startup__EXECFXN__C
00000001   xdc_runtime_Startup__RESETFXN__C
c306475c   xdc_runtime_Startup_execImpl__C
c3039440   xdc_runtime_Startup_exec__E
c302b2a0   xdc_runtime_Startup_exec__F
c3039460   xdc_runtime_Startup_exec__I
c3064540   xdc_runtime_Startup_firstFxns__A
c3064548   xdc_runtime_Startup_firstFxns__C
c3064760   xdc_runtime_Startup_lastFxns__A
c3064550   xdc_runtime_Startup_lastFxns__C
c3064764   xdc_runtime_Startup_maxPasses__C
c3039480   xdc_runtime_Startup_reset__I
c3063ca8   xdc_runtime_Startup_sfxnRts__A
c3064768   xdc_runtime_Startup_sfxnRts__C
c30632b8   xdc_runtime_Startup_sfxnTab__A
c306476c   xdc_runtime_Startup_sfxnTab__C
c301f8e0   xdc_runtime_Startup_startMods__I
c304eab8   xdc_runtime_SysMin_Module_State_0_outbuf__A
c305f298   xdc_runtime_SysMin_Module__state__V
c30394a0   xdc_runtime_SysMin_Module_startup__E
c30346a0   xdc_runtime_SysMin_Module_startup__F
c30394c0   xdc_runtime_SysMin_abort__E
c302ffc0   xdc_runtime_SysMin_abort__F
c3064770   xdc_runtime_SysMin_bufSize__C
c30394e0   xdc_runtime_SysMin_exit__E
c3034700   xdc_runtime_SysMin_exit__F
c3064820   xdc_runtime_SysMin_flushAtExit__C
c3030060   xdc_runtime_SysMin_flush__F
c3064774   xdc_runtime_SysMin_outputFunc__C
c3031ba0   xdc_runtime_SysMin_output__I
c3039500   xdc_runtime_SysMin_putch__E
c3030100   xdc_runtime_SysMin_putch__F
c3039520   xdc_runtime_SysMin_ready__E
c3039540   xdc_runtime_SysMin_ready__F
c3039560   xdc_runtime_System_Module_GateProxy_enter__E
c3039580   xdc_runtime_System_Module_GateProxy_leave__E
c305fe70   xdc_runtime_System_Module_State_0_atexitHandlers__A
c3064778   xdc_runtime_System_Module__gateObj__C
c305f2a4   xdc_runtime_System_Module__state__V
c30395a0   xdc_runtime_System_Module_startup__E
c30395c0   xdc_runtime_System_Module_startup__F
c30395e0   xdc_runtime_System_SupportProxy_abort__E
c3039600   xdc_runtime_System_SupportProxy_exit__E
c3039620   xdc_runtime_System_SupportProxy_putch__E
c3039640   xdc_runtime_System_SupportProxy_ready__E
c3039660   xdc_runtime_System_abort__E
c30368c0   xdc_runtime_System_abort__F
c3036900   xdc_runtime_System_aprintf__E
c3034760   xdc_runtime_System_aprintf_va__F
c3039680   xdc_runtime_System_atexit__E
c3031c20   xdc_runtime_System_atexit__F
c3010a20   xdc_runtime_System_doPrint__I
c30396a0   xdc_runtime_System_exit__E
c30396c0   xdc_runtime_System_exit__F
c306477c   xdc_runtime_System_extendFxn__C
c302e860   xdc_runtime_System_formatNum__I
c30396e0   xdc_runtime_System_lastFxn__I
c3064780   xdc_runtime_System_maxAtexitHandlers__C
c301ea80   xdc_runtime_System_printfExtend__I
c3036940   xdc_runtime_System_printf__E
c30347c0   xdc_runtime_System_printf_va__F
c3031ca0   xdc_runtime_System_rtsExit__I
c3039700   xdc_runtime_System_vsprintf__E
c3039720   xdc_runtime_System_vsprintf__F
c305f2b0   xdc_runtime_Text_Module__state__V
c3064824   xdc_runtime_Text_charCnt__C
c305ff68   xdc_runtime_Text_charTab__A
c3064784   xdc_runtime_Text_charTab__C
c3039740   xdc_runtime_Text_cordText__E
c3034820   xdc_runtime_Text_cordText__F
c3064828   xdc_runtime_Text_isLoaded__C
c3039760   xdc_runtime_Text_matchRope__E
c3036980   xdc_runtime_Text_matchRope__F
c302e920   xdc_runtime_Text_matchVisFxn__I
c3064788   xdc_runtime_Text_nameEmpty__C
c306478c   xdc_runtime_Text_nameStatic__C
c3064790   xdc_runtime_Text_nameUnknown__C
c3062d78   xdc_runtime_Text_nodeTab__A
c3064794   xdc_runtime_Text_nodeTab__C
c3031d20   xdc_runtime_Text_printVisFxn__I
c3039780   xdc_runtime_Text_putLab__E
c3029680   xdc_runtime_Text_putLab__F
c302b3a0   xdc_runtime_Text_putMod__F
c30397a0   xdc_runtime_Text_putSite__E
c3025b00   xdc_runtime_Text_putSite__F
c306482c   xdc_runtime_Text_registryModsLastId__C
c30397c0   xdc_runtime_Text_ropeText__E
c30369c0   xdc_runtime_Text_ropeText__F
c3064830   xdc_runtime_Text_unnamedModsLastId__C
c302b4a0   xdc_runtime_Text_visitRope2__I
c3064798   xdc_runtime_Text_visitRopeFxn__C
c30397e0   xdc_runtime_Text_visitRope__I
c3031da0   xdc_runtime_Text_xprintf__I
c3034880   xdc_runtime_knl_GateThread_Handle__label__S
c3036a00   xdc_runtime_knl_GateThread_Instance_finalize__F
c3036a40   xdc_runtime_knl_GateThread_Instance_init__F
c3063858   xdc_runtime_knl_GateThread_Module__FXNS__C
c305f2b8   xdc_runtime_knl_GateThread_Module__root__V
c3039800   xdc_runtime_knl_GateThread_Module__startupDone__S
c3063cc8   xdc_runtime_knl_GateThread_Object__DESC__C
c3063fb0   xdc_runtime_knl_GateThread_Object__PARAMS__C
c302b5a0   xdc_runtime_knl_GateThread_Object__create__S
c30348e0   xdc_runtime_knl_GateThread_Object__delete__S
c3039820   xdc_runtime_knl_GateThread_Proxy_Object__create__S
c3039840   xdc_runtime_knl_GateThread_Proxy_Object__delete__S
c3039860   xdc_runtime_knl_GateThread_Proxy_enter__E
c3039880   xdc_runtime_knl_GateThread_Proxy_leave__E
c30398a0   xdc_runtime_knl_GateThread_Proxy_query__E
c30398c0   xdc_runtime_knl_GateThread_enter__E
c30398e0   xdc_runtime_knl_GateThread_enter__F
c3039900   xdc_runtime_knl_GateThread_leave__E
c3039920   xdc_runtime_knl_GateThread_leave__F
c3039940   xdc_runtime_knl_GateThread_query__E
c3039960   xdc_runtime_knl_GateThread_query__F
1171fce0   yc_configure
c3065b9e   yxdata
c3065b9c   yxnum


GLOBAL SYMBOLS: SORTED BY Symbol Address 

address    name
--------   ----
00000001   __TI_args_main
00000001   xdc_runtime_Startup__EXECFXN__C
00000001   xdc_runtime_Startup__RESETFXN__C
00000064   _argsize
00001000   __TI_STACK_SIZE
11700000   scada
11706ec0   AD_BUF
1170bec0   AD16_BUF
1170d2c0   _ZN2FA9GetParaIdEaa
1170d568   _ZN2FA7ReadCfgEm
1170d688   _ZN2FA4InitEv
1170d6a0   _ZN2FA8ParaInitEv
1170d984   _ZN2FA13FunHandleInitEv
11710538   _ZN2FA3RunEv
117105e0   lp
11713360   _ZN12LocalProtect8ParaInitEv
117134f8   _ZN12LocalProtect10BaseMdInitEv
11715c40   _ZN12LocalProtect4InitEv
11715c60   _ZN12LocalProtect9GetParaIdEaa
11715dac   _ZN12LocalProtect7ReadCfgEm
11716060   YcDeadTime
11718060   _Z6nmifxnj
1171854c   _Z6AdCopyv
11719384   _Z9ProAdCopyv
11719920   _Z9YxReadCfgm
11719cc8   _Z12YxCompassIntv
11719fc4   _Z6PopSoehtP8soe_data
1171a078   _Z6SendYxv
1171a220   _Z13YueXianYxInitv
1171a798   _Z11ChecksoftYxv
1171af48   _Z6YxInitv
1171b0a0   AD_BU
1171c4a0   ad_point
1171c4a8   FFT_OUT
1171d8a8   FpgaHost
1171d8c0   _ZN5ScadaC1Ev
1171d910   _ZN5Scada7ReadCfgEm
1171dc74   _ZN5Scada4InitEv
1171e4a0   fa
1171eee8   w64
1171f0e8   w16
1171f300   _Z6Swifftjj
1171f700   _Z14GPIO_setOutputmhh
1171f8a0   LineVol
1171f9e0   FpgaSlave
1171fae0   _Z10HwiDynamicj
1171fb54   _Z8softtimev
1171fb58   _Z7clk1Fxnj
1171fb84   _Z7clk2Fxnj
1171fb94   _Z8HwiTimerj
1171fc00   JB_RMS
1171fca0   brev
1171fce0   yc_configure
c3000000   _Z7GetMsg211MessageDataI12BaseDataTypeE
c3000000   __ASM__
c300003c   _Z10scada_mainPv
c3000058   _Z13adcompass_intv
c3000060   __ISA__
c3000078   __PLAT__
c30000a0   __TARG__
c30000c8   __TRDR__
c3000224   _Z11YcRatioInith
c300054c   _Z11YcStandInitv
c3000784   _ZN5Scada22GetHarmonicRmsAndRatioEfPf
c30007f8   _ZN5Scada15GetHarmonicDataEv
c3000a30   _ZN5Scada7PtAdaptEv
c3000fcc   _ZN5Scada8GetPowerEhh
c30012c0   _ZN5Scada10CosSinz1z2E7complexS0_
c30014d0   _ZN5Scada11PhaseChangeEP7complexS1_tf
c300158c   _ZN5Scada15ComplexRotationE7complexf
c300160c   _ZN5Scada7compareEPfS0_S0_ff
c30016ec   _ZN5Scada13first_compareEPfS0_f
c3001734   _ZN5Scada8GetXishuEPfS0_S0_h
c3001788   _ZN5Scada7GetDeadEl
c3001a90   _ZN5Scada10GetYcAngleEhh
c3001b34   _ZN5Scada11GetCplAngleE7complex
c3001bf8   _ZN5Scada12FloatCompareEff
c3001ca8   _ZN5Scada14IsOverDeadbandEfff
c3001cf0   _ZN5Scada8TotalRmsEPfh
c3001d70   _ZN5Scada8CaculateEv
c3001e08   _ZN5Scada10GetModulusEv
c3001fd8   _ZN5Scada6GetRmsEv
c30022c8   _ZN5Scada6GetPQSEv
c30029ac   _ZN5Scada13CheckDeadDataEv
c3002bc4   _ZN5Scada11CalibrationEv
c3003958   _ZN5Scada6GetMsgE11MessageDataI12BaseDataTypeE
c30039f0   _ZN5Scada3RunEv
c3003a94   __sti___9_scada_cpp_YcData
c3003ae0   _ZN2daC1Ev
c3007120   _ZN8scada_ycC1Ev
c3009678   _ZN7SysLink11SysLinkInitEv
c3009a10   _ZN7SysLink11SysLinkFnitEv
c3009f4c   _ZN7SysLink7OnWriteEPcj
c3009fb0   _ZN7SysLink6OnReadEPcj
c300a034   _ZN7SysLink12OnCheckEventEPcj
c300a0a4   _ZN7SysLink7SendCmdEjj
c300a12c   _ZN7SysLink7RecvCmdEv
c300a178   _ZN7SysLink13SetOnWriteFunEPFsPcmE
c300a190   _ZN7SysLink12SetOnReadFunEPFmPcmE
c300a1a8   _ZN7SysLink13SetOnCheckFunEPFmPcmE
c300a1c0   _ZN7SysLink18GetShareBufferAddrEv
c300a6cc   _ZN7SysLink18RegisterSharereionEt
c300abe0   _ZN8UserDataC1Ev
c300ac20   _ZN8UserDataD1Ev
c300ac38   _ZN8UserData7GetDataElP4DataI12BaseDataTypeE
c300af80   _ZN8UserData7SetDataElP4DataI12BaseDataTypeE
c300b324   _ZN8UserData7GetDataElP4DataI12BaseDataTypeEPc
c300b784   _ZN8UserData7SetDataElPc
c300baec   _ZN8UserData11GetDataSizeEl
c300bda8   _ZN8UserData11GetDataTypeEl
c300be08   _ZN8UserData10GetDataPtrEl
c300c0e0   _ZN8UserData10RecallDataEtt
c300c198   __sti___8_data_cpp_d772bfaa
c300c1e0   _ZN5ClockC1Ei
c300c280   _ZN5ClockD1Ev
c300c290   _ZN5Clock4tickEv
c300c2e4   _ZN5Clock8DTriggerEsmmP9setmstimeS1_
c300c384   _ZN5Clock8STriggerEsmP9setmstime
c300c444   _ZN5Clock12CheckMsClockEP9setmstime
c300c4a0   _ZN5Clock11StopMsClockEP9setmstime
c300c4c8   _ZN5Clock12StartMsClockEP9setmstimey
c300c52c   _ZN5Clock10CheckClockEP7settime
c300c674   _ZN5Clock9StopClockEP7settime
c300c6d8   _ZN5Clock10StartClockEP7settimehhhhht
c300c844   _ZN5Clock8AndClockE9time_dataS0_
c300cd48   _ZN5Clock8getTicksEv
c300cd60   _ZN5Clock5getIdEv
c300cd74   _ZN5Clock8GetSysMsEv
c300ce14   _ZN5Clock14getMicrosecondEv
c300ce2c   _ZN5Clock14getMillisecondEv
c300ce44   _ZN5Clock9getSecondEv
c300ce58   _ZN5Clock9getMinuteEv
c300ce70   _ZN5Clock7getHourEv
c300ce88   _ZN5Clock6getDayEv
c300cea0   _ZN5Clock8getMonthEv
c300ceb4   _ZN5Clock7getYearEv
c300cecc   _ZN5Clock13GetCP56Time2aEv
c300cfe4   _ZN5Clock14setMicrosecondEv
c300d018   _ZN5Clock14setMillisecondEv
c300d06c   _ZN5Clock9setSecondEv
c300d0a4   _ZN5Clock9setMinuteEv
c300d0d8   _ZN5Clock7setHourEv
c300d10c   _ZN5Clock6setDayEv
c300d318   _ZN5Clock8setMonthEv
c300d358   _ZN5Clock7setYearEv
c300d38c   __sti___9_clock_cpp_clk0
c300d3e0   _Z4Urmshh
c300d52c   _Z4Irmshh
c300d684   _Z14U_harmonic_numh
c300d6fc   _Z16U_harmonic_radioh
c300d768   _Z14I_harmonic_numh
c300d7e0   _Z16I_harmonic_radioh
c300d84c   _Z7AngleUIh
c300d914   _Z6ManSetv
c300e360   _Z6YkInitv
c300e3d8   _Z9YkReadCfgm
c300e770   _Z12CheckYkStates7dcodata
c300e914   _Z10CheckNoVolv
c300e98c   _Z8CheckSynv
c300ea2c   _Z15BreakCloseCheckhh
c300eaac   _Z5YkOuts7dcodata
c300ec94   _Z9ControlYks7dcodata
c300ee88   _Z11BreakRecordsh
c300f1e0   __sti___6_yk_cpp_d_5054
c300f280   _Z5GetIdv
c300f290   _Z10GetSlaveIDh
c300f2b8   _Z9SendReadyh
c300f32c   _Z15ReceiveTimerOuth
c300f3c4   _Z11ReceiveFullh
c300f434   _Z11ReceiveFlagh
c300f524   _Z13FpgaWriteDatahPtt
c300f798   _Z12FpgaReadDatahPtt
c300faf4   _Z7FpgaOuthhht
c300fc64   _Z8FpgaInitv
c300fd10   _Z11FpgaCfgInitv
c300fea0   ti_sdo_ipc_GateMP_Instance_init__F
c3010a20   xdc_runtime_System_doPrint__I
c30113c0   _ZN12LocalProtect7ParacpyEv
c3011658   _ZN12LocalProtect3funEv
c3011a88   __sti___16_localprotect_cpp_e267d684
c3011c00   _Z7PushSoehtt
c3011dc4   _Z11GetHardYxIdi
c3011de8   _Z14ReadYxFromFpgav
c3011f44   _Z14YxNatureChangeai
c3012094   _Z5GetYxv
c3012340   __sti___6_yx_cpp_d_5085
c3012420   _Z7fa_mainPv
c3012438   _Z12BreakerStatuth
c3012524   _Z10ProtectOutth
c3012630   _Z17CloseBreakerCheckhh
c3012654   _ZN2FAC1Ev
c3012738   _ZN2FA14FixTimeProtectEv
c3012be0   __sti___6_fa_cpp_fa
c3012c20   _Z16EVMOMAPL138_initv
c3012c40   _Z19EVMOMAPL138_initRAMv
c3012d34   _Z21EVMOMAPL138_enableDspv
c3012d64   _Z24EVMOMAPL138_pinmuxConfigmmm
c3012e00   _Z26EVMOMAPL138_lpscTransitionP10psc_regs_tmhh
c3012f74   _Z11config_pll0mmmmmmm
c30131a8   _Z11config_pll1mmmmm
c3013390   _Z13UTIL_printMemmPhmh
c3013420   _ZN4TaskC1Ev
c3013440   _ZN4TaskD1Ev
c3013460   _ZN4Task4InitEv
c3013484   _ZN4Task10CheckHeartEv
c3013650   _ZN4Task11StartThreadEm
c3013820   _ZN4Task10StopThreadEm
c3013944   _ZN4Task6RegistEP7BaseAppPFPvS2_E
c3013a78   _ZN4Task5HeartEm
c3013b40   ti_sysbios_family_c64p_Exception_handler__I
c30142c0   Ipc_detach
c3014a20   Ipc_attach
c3015160   _Z12message_mainPv
c3015178   _ZN7MessageC1Ev
c3015258   _ZN7MessageD1Ev
c30152e4   _ZN7Message4InitEv
c30152f8   _ZN7Message3RunEPv
c3015374   _ZN7Message7SendMsgEmllP12BaseDataTypeP9time_data
c3015450   _ZN7Message7SendMsgEmllPcP9time_data
c3015524   _ZN7Message6GetMsgEmPP11MessageDataI12BaseDataTypeE
c30155e0   _ZN7Message9RegistMsgEmPFs11MessageDataI12BaseDataTypeEE
c30156c4   _ZN7Message8CheckMsgEv
c3015810   __sti___11_message_cpp_msg
c3015860   ti_sdo_ipc_transports_TransportShm_Instance_init__F
c3015f60   _Z9varm_mainPv
c3015f74   _Z16OnCheckNormalMsgPcm
c3015fa4   _Z9OnGetDataPcm
c3016078   _Z9OnSetDataPcm
c3016144   _ZN4VarmC1Ev
c3016188   _ZN4VarmD1Ev
c30161c0   _ZN4Varm4InitEv
c301624c   _ZN4Varm3RunEv
c3016394   _ZN4Varm8CheckMsgEv
c3016610   _ZN4Varm12OnGetWaveMsgEv
c3016624   __sti___8_varm_cpp_varm
c3016660   ti_sysbios_timers_timer64_Timer_Instance_init__F
c3017200   __c6xabi_divd
c3017c20   _printfi
c3018080   ti_sdo_ipc_GateMP_setRegion0Reserved__F
c30184e0   ti_sdo_ipc_heaps_HeapMemMP_Instance_init__F
c3018940   ti_sdo_ipc_nsremote_NameServerRemoteNotify_get__F
c3018da0   ti_sdo_ipc_ListMP_Instance_init__F
c30191e0   _ZN5StackC1Ev
c3019228   _ZN5Stack4PushE11MessageDataI12BaseDataTypeE
c3019390   _ZN5Stack4PushE11MessageDataI12BaseDataTypeEPc
c3019504   _ZN5Stack3PopEa
c3019578   _ZN5Stack5FlushEv
c30195e0   ti_sdo_ipc_GateMP_Instance_finalize__F
c30199c0   ti_sdo_ipc_heaps_HeapMemMP_alloc__E
c3019d80   DSPF_sp_fftSPxSP
c301a120   NameServer_add
c301a4c0   _ZN6ChzOut3FunEythh
c301a840   ti_sdo_ipc_heaps_HeapMemMP_free__E
c301abc0   xdc_runtime_Diags_setMask__F
c301b0b4   _Z13interrupt_intv
c301b280   _Z10FreqFollows
c301b2a0   ti_sysbios_timers_timer64_Timer_Module_startup__F
c301b5c0   fputs
c301b8c0   _ZN9ActionOut3funEytt
c301be80   cos
c301c160   ti_sdo_ipc_nsremote_NameServerRemoteNotify_Instance_init__F
c301cc40   ti_sdo_ipc_Ipc_procSyncStart__I
c301cee0   ti_sdo_ipc_transports_TransportShm_Instance_finalize__F
c301d180   Ipc_start
c301d400   ListMP_putTail
c301d680   ListMP_remove
c301d900   _ZN11PowerDirect5PdFunEv
c301db80   __c6xabi_divf
c301e080   sin
c301e300   ti_sdo_ipc_gates_GatePeterson_Instance_init__F
c301e580   xdc_runtime_Core_createObject__I
c301e800   xdc_runtime_Error_raiseX__F
c301ea80   xdc_runtime_System_printfExtend__I
c301ed00   _ZN9ActionOutC1Ev
c301ef60   __c6xabi_divull
c301f420   _Z6tw_genPfi
c301f680   ti_sysbios_timers_timer64_Timer_setPeriodMicroSecs__E
c301f8e0   xdc_runtime_Startup_startMods__I
c301fb40   GateMP_openByAddr
c301fd80   Notify_unregisterEvent
c3020200   ti_sdo_ipc_family_da830_NotifySetup_attach__E
c3020440   ti_sdo_ipc_heaps_HeapMemMP_getStats__E
c3020680   ti_sysbios_family_c64p_Exception_internalHandler__I
c30208c0   ti_sysbios_knl_Semaphore_pend__E
c3020b00   xdc_runtime_LoggerBuf_write8__F
c3020f60   ti_sdo_ipc_nsremote_NameServerRemoteNotify_swiFxn__I
c3021180   ti_sysbios_knl_Task_exit__E
c30213a0   ListMP_getHead
c30217a0   ti_sysbios_family_c64p_Hwi_dispatchAlways
c30219a0   ti_sdo_ipc_Ipc_procSyncFinish__I
c3021ba0   ti_sdo_ipc_notifyDrivers_NotifyDriverShm_Instance_init__F
c3021da0   ti_sdo_ipc_notifyDrivers_NotifyDriverShm_sendEvent__E
c3021fa0   ti_sysbios_gates_GateMutexPri_enter__E
c30221a0   ti_sysbios_knl_Task_Instance_finalize__F
c30223a0   GateMP_sharedMemReq
c3022580   ListMP_openByAddr
c3022760   _ZN12CurrentCheck3funEyt
c3022940   ti_sysbios_knl_Task_postInit__I
c3022ea0   atan2sp
c3023060   ti_sdo_ipc_GateMP_getFreeResource__I
c3023220   ti_sdo_ipc_heaps_HeapMemMP_postInit__I
c30233e0   ti_sysbios_family_c64p_Hwi_reconfig__E
c30235a0   ti_sysbios_knl_Task_checkStacks__E
c3023760   Ipc_writeConfig
c3023aa0   __c6xabi_divul
c3023c40   _Z5debugiiPKcS0_iS0_z
c3023cd4   _Z11dump_binaryPhs
c3023de0   ti_sdo_ipc_notifyDrivers_NotifyDriverShm_registerEvent__E
c3023f80   ti_sdo_ipc_notifyDrivers_NotifyDriverShm_unregisterEvent__E
c3024120   ti_sysbios_knl_Task_Instance_init__F
c30242c0   ti_sysbios_timers_timer64_Timer_start__E
c3024460   xdc_runtime_LoggerBuf_write4__F
c3024600   HOSTrename
c3024780   NameServer_getHandle
c3024900   _ZN5Pulse3funEv
c3024a80   asin
c3024c60   expsp
c3024dc0   logsp
c3024f00   setvbuf
c3025080   ti_sysbios_family_c64p_Exception_dispatch__E
c3025200   ti_sdo_ipc_gates_GatePeterson_enter__E
c3025380   ti_sdo_ipc_notifyDrivers_NotifyDriverShm_isr__I
c3025500   ti_sysbios_heaps_HeapMem_alloc__E
c3025680   ti_sysbios_knl_Swi_schedule__I
c3025800   ti_sysbios_knl_Task_schedule__I
c3025980   ti_sysbios_knl_Task_setPri__E
c3025b00   xdc_runtime_Text_putSite__F
c3025c80   ti_sdo_ipc_GateMP_openRegion0Reserved__F
c3025de0   ti_sdo_ipc_ListMP_Instance_finalize__F
c3025f40   ti_sdo_ipc_Notify_Instance_init__F
c30260a0   ti_sdo_ipc_heaps_HeapMemMP_Instance_finalize__F
c3026200   ti_sdo_utils_NameServer_removeLocal__I
c3026360   ti_sysbios_family_c64p_Hwi_dispatchC__I
c30264c0   ti_sysbios_heaps_HeapMem_free__E
c3026620   ti_sysbios_knl_Task_startup__E
c3026780   HeapMemMP_openByAddr
c30268c0   MessageQ_put
c3026a00   Notify_registerEvent
c3026b40   _ZN15DelayStartDelay3funEv
c3026c80   _auto_init_elf
c3026f00   fputc
c3027180   sqrt
c30272c0   ti_sdo_ipc_SharedRegion_start__F
c3027400   ti_sdo_ipc_notifyDrivers_NotifyDriverShm_disableEvent__E
c3027540   ti_sdo_ipc_transports_TransportShm_openByAddr__F
c3027680   ti_sdo_ipc_transports_TransportShm_put__E
c30277c0   ti_sysbios_family_c64p_Hwi_Module_startup__F
c3027900   ti_sysbios_knl_Task_Module_startup__F
c3027a40   ti_sysbios_knl_Task_sleep__E
c3027b80   HeapMemMP_sharedMemReq
c3027dc0   _ZN10_ScadaParaC1Ev
c3027ee0   __c6xabi_divlli
c3028000   fclose
c3028120   frexp
c3028240   cossp
c3028360   _powf
c3028360   powsp
c3028494   sinsp
c30285e0   _Z16thread_cond_initP4condPKc
c30285f0   _Z13thread_signalP4cond
c3028604   _Z17thread_signal_allP4cond
c3028614   _Z16thread_wait_condP4cond
c3028624   _Z19thread_cond_destroyP4cond
c3028634   _Z11thread_initv
c3028638   _Z10mutex_initP5mutexPKc
c3028660   _Z13mutex_destroyP5mutex
c3028674   _Z10mutex_lockP5mutex
c3028690   _Z12mutex_unlockP5mutex
c30286c0   ti_sdo_ipc_MessageQ_Module_startup__F
c30287e0   ti_sdo_ipc_Notify_Object__create__S
c3028900   ti_sdo_ipc_gates_GatePeterson_Object__create__S
c3028a20   ti_sdo_ipc_nsremote_NameServerRemoteNotify_Object__create__S
c3028b40   ti_sdo_ipc_transports_TransportShm_Object__create__S
c3028c60   ti_sdo_ipc_transports_TransportShm_sharedMemReq__F
c3028d80   ti_sysbios_family_c64p_Cache_Module_startup__F
c3028ea0   ti_sysbios_family_c64p_Hwi_Object__create__S
c3028fc0   ti_sysbios_hal_Hwi_Object__create__S
c30290e0   ti_sysbios_knl_Clock_workFunc__E
c3029200   ti_sysbios_knl_Swi_Object__create__S
c3029320   ti_sysbios_knl_Task_Object__create__S
c3029440   ti_sysbios_timers_timer64_Timer_Object__create__S
c3029560   xdc_runtime_LoggerBuf_setFilterLevel__F
c3029680   xdc_runtime_Text_putLab__F
c30297a0   HOSTlseek
c30298a0   ListMP_sharedMemReq
c30299a0   Notify_registerEventSingle
c3029aa0   Notify_sendEvent
c3029ba0   Notify_unregisterEventSingle
c3029ca0   _ZN12CurrentCheckC1Ev
c3029da0   _ZN19DelayStartDelayPlus19Plus01_T1_1_10_T2_0EbllyP13BASEPROSTATU2
c3029fa0   _wrt_ok
c302a1a0   ti_sdo_ipc_GateMP_Object__create__S
c302a2a0   ti_sdo_ipc_GateMP_start__F
c302a3a0   ti_sdo_ipc_ListMP_Object__create__S
c302a4a0   ti_sdo_ipc_Notify_Instance_finalize__F
c302a5a0   ti_sdo_ipc_SharedRegion_attach__F
c302a6a0   ti_sdo_ipc_SharedRegion_clearReservedMemory__F
c302a7a0   ti_sdo_ipc_heaps_HeapMemMP_Object__create__S
c302a8a0   ti_sdo_ipc_notifyDrivers_NotifyDriverShm_Object__create__S
c302a9a0   ti_sdo_ipc_nsremote_NameServerRemoteNotify_Instance_finalize__F
c302aaa0   ti_sdo_ipc_transports_TransportShmSetup_attach__E
c302aba0   ti_sdo_utils_NameServer_findLocal__I
c302aca0   ti_sysbios_gates_GateMutexPri_leave__E
c302ada0   ti_sysbios_knl_Swi_restoreHwi__E
c302aea0   xdc_runtime_Core_deleteObject__I
c302afa0   xdc_runtime_LoggerBuf_Object__create__S
c302b0a0   xdc_runtime_LoggerBuf_getFilterLevel__F
c302b1a0   xdc_runtime_Registry_findByNamePattern__E
c302b2a0   xdc_runtime_Startup_exec__F
c302b3a0   xdc_runtime_Text_putMod__F
c302b4a0   xdc_runtime_Text_visitRope2__I
c302b5a0   xdc_runtime_knl_GateThread_Object__create__S
c302b6a0   HOSTopen
c302b780   NameServer_getLocal
c302b860   _ZN10DelayStart3funEv
c302b940   _ZN11ConterSleep3funEv
c302ba20   _ZN12ConterRuning3funEv
c302bb00   _ZN13ConterReached3funEv
c302bbe0   __c6xabi_divi
c302bbe0   __divi
c302bcc0   atoi
c302bda0   close
c302be80   main
c302bf18   __sti___7_dsp_cpp_task
c302bf60   exit
c302c040   ltoa
c302c120   memset
c302c200   ti_sdo_ipc_Ipc_getMasterAddr__I
c302c2e0   ti_sdo_ipc_Ipc_getSlaveAddr__I
c302c3c0   ti_sdo_ipc_Notify_detach__F
c302c4a0   ti_sdo_ipc_SharedRegion_reserveMemory__F
c302c580   ti_sdo_ipc_gates_GatePeterson_sharedMemReq__E
c302c660   ti_sdo_utils_NameServer_Module_startup__F
c302c740   ti_sysbios_knl_Clock_startI__E
c302c820   ti_sysbios_knl_Task_unblockI__E
c302c900   ti_sysbios_timers_timer64_Timer_startup__E
c302c9e0   xdc_runtime_Error_print__F
c302cac0   xdc_runtime_Memory_alloc__F
c302cba0   xdc_runtime_Registry_addModule__E
c302cc80   xdc_runtime_Registry_findById__E
c302cd60   HOSTread
c302ce20   HOSTunlink
c302cee0   HOSTwrite
c302cfa0   HeapMemMP_create
c302d060   ListMP_create
c302d120   MultiProc_getId
c302d1e0   SharedRegion_getId
c302d2a0   _ZN11StartConter3funEv
c302d360   _ZN12ANALOGSTEADY3funEv
c302d420   _ZN13DirecBaseCalc3FunE7complexS0_ff
c302d4e0   _ZN6ChzOutC1Ev
c302d5a0   _ZN7NewToolI8BaseToolE6ConfigE8NODEDATA
c302d660   __cxa_finalize
c302d720   __c6xabi_divu
c302d720   __divu
c302d7e0   __c6xabi_remi
c302d7e0   __remi
c302d8a0   _cleanup
c302da20   _doflush
c302dae0   fseek
c302dba0   lseek
c302dc60   ti_sdo_ipc_GateMP_attach__F
c302dd20   ti_sdo_ipc_ListMP_elemClear__I
c302dde0   ti_sdo_ipc_Notify_execMany__I
c302dea0   ti_sdo_ipc_family_da830_InterruptDsp_intRegister__E
c302df60   ti_sdo_ipc_gates_GatePeterson_postInit__I
c302e020   ti_sdo_ipc_nsremote_NameServerRemoteNotify_attach__E
c302e0e0   ti_sdo_utils_NameServer_postInit__I
c302e1a0   ti_sysbios_BIOS_errorRaiseHook__I
c302e260   ti_sysbios_family_c64p_Hwi_Instance_init__F
c302e320   ti_sysbios_heaps_HeapMem_getStats__E
c302e3e0   ti_sysbios_knl_Idle_loop__E
c302e4a0   ti_sysbios_knl_Semaphore_post__E
c302e560   ti_sysbios_knl_Swi_run__I
c302e620   ti_sysbios_timers_timer64_Timer_stop__E
c302e6e0   write
c302e7a0   xdc_runtime_LoggerBuf_Instance_init__F
c302e860   xdc_runtime_System_formatNum__I
c302e920   xdc_runtime_Text_matchVisFxn__I
c302e9e0   HOSTclose
c302ea80   SharedRegion_getPtr
c302eb20   SharedRegion_getSRPtr
c302ebc0   _ZN10CURRENTPROC1Ev
c302ec60   _ZN32DelayStartAndDelayStartDelayTime5TCel1EbmyP12BASEPROSTATU
c302ed00   _Znwj
c302eda0   __c6xabi_nround
c302ee40   __c6xabi_remu
c302ee40   __remu
c302eee0   _c_int00
c302f160   ti_sysbios_family_c64p_Hwi_plug__E
c302f200   _Z6udelaym
c302f24c   _Z6mdelaym
c302f268   _Z5delaym
c302f284   _Z5sleepl
c302f340   malloc
c302f3e0   memcpy
c302f480   modf
c302f520   sqrtsp
c302f5c0   ti_sdo_ipc_GateMP_getRegion0ReservedSize__F
c302f660   ti_sdo_ipc_gates_GateMPSupportNull_Object__create__S
c302f700   ti_sdo_ipc_gates_GatePeterson_leave__E
c302f7a0   ti_sdo_ipc_notifyDrivers_NotifyDriverShm_Instance_finalize__F
c302f840   ti_sdo_ipc_transports_TransportShmSetup_detach__E
c302f8e0   ti_sysbios_heaps_HeapMem_init__I
c302f980   ti_sysbios_knl_Clock_Instance_init__F
c302fa20   ti_sysbios_knl_Clock_Object__create__S
c302fac0   ti_sysbios_knl_Clock_doTick__I
c302fb60   ti_sysbios_knl_Semaphore_Object__create__S
c302fc00   ti_sysbios_knl_Swi_Instance_init__F
c302fca0   ti_sysbios_knl_Swi_post__E
c302fd40   xdc_runtime_Assert_raise__I
c302fde0   xdc_runtime_LoggerBuf_Module_startup__F
c302fe80   xdc_runtime_Registry_addModule__F
c302ff20   xdc_runtime_Registry_findByName__F
c302ffc0   xdc_runtime_SysMin_abort__F
c3030060   xdc_runtime_SysMin_flush__F
c3030100   xdc_runtime_SysMin_putch__F
c30301a0   GateMP_close
c3030220   HeapMemMP_restore
c30302a0   Ipc_stop
c30303a0   _ZN10StopConter3funEv
c3030420   _ZN12LocalProtectC1Ev
c30304a0   _ZN15ConterDelayPlus11CheckConterEyP9setmstime
c3030520   _ZN5Pulse6ConfigE8NODEDATA
c30305a0   _ZN6STEADY3funEv
c3030620   _ZN7COMPARE3funEv
c30306a0   _ZN7Counter11CheckConterEyP9setmstime
c3030720   _ZN7_FaParaC1Ev
c30307a0   __c6xabi_llshl
c3030820   ti_sysbios_family_c62_TaskSupport_swap__E
c30308a0   fprintf
c3030920   printf
c30309a0   readmsg
c3030a20   ti_sdo_ipc_Notify_Module_startup__F
c3030aa0   ti_sdo_ipc_family_da830_NotifySetup_sharedMemReq__E
c3030b20   ti_sdo_ipc_notifyDrivers_NotifyDriverShm_sharedMemReq__F
c3030ba0   ti_sdo_ipc_nsremote_NameServerRemoteNotify_detach__E
c3030c20   ti_sdo_ipc_transports_TransportShm_swiFxn__I
c3030ca0   ti_sdo_utils_List_Object__create__S
c3030d20   ti_sysbios_BIOS_exitFunc__I
c3030da0   ti_sysbios_family_c62_TaskSupport_start__E
c3030e20   ti_sysbios_family_c64p_Hwi_Instance_finalize__F
c3030ea0   ti_sysbios_family_c64p_Hwi_eventMap__E
c3030f20   ti_sysbios_gates_GateAll_Object__create__S
c3030fa0   ti_sysbios_gates_GateHwi_Object__create__S
c3031020   ti_sysbios_gates_GateMutexPri_Object__create__S
c30310a0   ti_sysbios_gates_GateMutex_Object__create__S
c3031120   ti_sysbios_gates_GateMutex_enter__E
c30311a0   ti_sysbios_gates_GateSwi_Object__create__S
c3031220   ti_sysbios_heaps_HeapMem_Instance_init__F
c30312a0   ti_sysbios_heaps_HeapMem_Object__create__S
c3031320   ti_sysbios_knl_Clock_Module_startup__F
c30313a0   ti_sysbios_knl_Clock_getTicks__E
c3031420   ti_sysbios_knl_Queue_Object__create__S
c30314a0   ti_sysbios_knl_Swi_restore__E
c3031520   ti_sysbios_knl_Swi_startup__E
c30315a0   ti_sysbios_knl_Task_restore__E
c3031620   ti_sysbios_knl_Task_yield__E
c30316a0   ti_sysbios_timers_timer64_Timer_Instance_finalize__F
c3031720   ti_sysbios_timers_timer64_Timer_getExpiredCounts__E
c30317a0   ti_sysbios_timers_timer64_Timer_getPeriod__E
c3031820   ti_sysbios_xdcruntime_GateThreadSupport_Object__create__S
c30318a0   unlink
c3031920   xdc_runtime_Core_assignLabel__I
c30319a0   xdc_runtime_Core_assignParams__I
c3031a20   xdc_runtime_LoggerBuf_filterOutEvent__I
c3031aa0   xdc_runtime_Registry_findByNamePattern__F
c3031b20   xdc_runtime_Registry_matchPattern__I
c3031ba0   xdc_runtime_SysMin_output__I
c3031c20   xdc_runtime_System_atexit__F
c3031ca0   xdc_runtime_System_rtsExit__I
c3031d20   xdc_runtime_Text_printVisFxn__I
c3031da0   xdc_runtime_Text_xprintf__I
c3031e20   GateMP_Params_init
c3031e80   HeapMemMP_Params_init
c3031ee0   Notify_numIntLines
c3031f40   Notify_sharedMemReq
c3031fa0   _ZN10COMPARETAB6GetLabEv
c3032000   _ZN10DelayStart6ConfigE8NODEDATA
c3032060   _ZN10HIGHANALOG3funEv
c30320c0   _ZN11StartConter6ConfigE8NODEDATA
c3032120   _ZN12ANALOGSTEADY6ConfigE8NODEDATA
c3032180   _ZN12LOWANALOGTAB6GetLabEv
c30321e0   _ZN13DelayStartTAB6GetLabEv
c3032240   _ZN13HIGHANALOGTAB6GetLabEv
c30322a0   _ZN13StopConterTAB6GetLabEv
c3032300   _ZN14ConterSleepTAB6GetLabEv
c3032360   _ZN14StartConterTAB6GetLabEv
c30323c0   _ZN15ANALOGSTEADYTAB6GetLabEv
c3032420   _ZN15ConterDelayPlus11StartConterEmyP9setmstime
c3032480   _ZN15ConterRuningTAB6GetLabEv
c30324e0   _ZN15DelayStartDelay6ConfigE8NODEDATA
c3032540   _ZN16ConterReachedTAB6GetLabEv
c30325a0   _ZN18DelayStartDelayTAB6GetLabEv
c3032600   _ZN3XOR3funEv
c3032660   _ZN4XNOR3funEv
c30326c0   _ZN5ORTAB6GetLabEv
c3032720   _ZN6ANDTAB6GetLabEv
c3032780   _ZN6LPPARAC1Ev
c30327e0   _ZN6NOTTAB6GetLabEv
c3032840   _ZN6XORTAB6GetLabEv
c30328a0   _ZN7COMPARE6ConfigE8NODEDATA
c3032900   _ZN7Counter11StartConterEmyP9setmstime
c3032960   _ZN7NANDTAB6GetLabEv
c30329c0   _ZN7XNORTAB6GetLabEv
c3032a20   _ZN8EQUALTAB6GetLabEv
c3032a80   _ZN8PulseTAB6GetLabEv
c3032ae0   _ZN9ActionOut10ReadSoeIRFEt
c3032b40   _ZN9LOWANALOG3funEv
c3032ba0   _ZN9STEADYTAB6GetLabEv
c3032c00   __cxa_vec_ctor
c3032c60   _subcull
c3032d80   memccpy
c3032e40   strcpy
c3032ea0   strpbrk
c3032f00   ti_sdo_ipc_GateMP_Object__delete__S
c3032f60   ti_sdo_ipc_GateMP_createLocal__F
c3032fc0   ti_sdo_ipc_Ipc_getRegion0ReservedSize__I
c3033020   ti_sdo_ipc_ListMP_Object__delete__S
c3033080   ti_sdo_ipc_Notify_Object__delete__S
c30330e0   ti_sdo_ipc_gates_GateMPSupportNull_Handle__label__S
c3033140   ti_sdo_ipc_gates_GateMPSupportNull_Object__delete__S
c30331a0   ti_sdo_ipc_gates_GatePeterson_Handle__label__S
c3033200   ti_sdo_ipc_gates_GatePeterson_Instance_finalize__F
c3033260   ti_sdo_ipc_gates_GatePeterson_Object__delete__S
c30332c0   ti_sdo_ipc_heaps_HeapMemMP_Handle__label__S
c3033320   ti_sdo_ipc_heaps_HeapMemMP_Object__delete__S
c3033380   ti_sdo_ipc_notifyDrivers_NotifyDriverShm_Handle__label__S
c30333e0   ti_sdo_ipc_notifyDrivers_NotifyDriverShm_Object__delete__S
c3033440   ti_sdo_ipc_notifyDrivers_NotifyDriverShm_enableEvent__E
c30334a0   ti_sdo_ipc_notifyDrivers_NotifyDriverShm_setNotifyHandle__E
c3033500   ti_sdo_ipc_nsremote_NameServerRemoteNotify_Handle__label__S
c3033560   ti_sdo_ipc_nsremote_NameServerRemoteNotify_Object__delete__S
c30335c0   ti_sdo_ipc_transports_TransportShmSetup_sharedMemReq__E
c3033620   ti_sdo_ipc_transports_TransportShm_Handle__label__S
c3033680   ti_sdo_ipc_transports_TransportShm_Object__delete__S
c30336e0   ti_sysbios_BIOS_registerRTSLock__I
c3033740   ti_sysbios_family_c64p_Cache_setMar__E
c30337a0   ti_sysbios_family_c64p_Cache_wait__E
c3033800   ti_sysbios_family_c64p_Exception_Module_startup__F
c3033860   ti_sysbios_family_c64p_Hwi_Object__delete__S
c30338c0   ti_sysbios_family_c64p_primus_TimerSupport_enable__E
c3033920   ti_sysbios_gates_GateAll_Handle__label__S
c3033980   ti_sysbios_gates_GateAll_Object__delete__S
c30339e0   ti_sysbios_gates_GateAll_enter__E
c3033a40   ti_sysbios_gates_GateHwi_Handle__label__S
c3033aa0   ti_sysbios_gates_GateHwi_Object__delete__S
c3033b00   ti_sysbios_gates_GateMutexPri_Handle__label__S
c3033b60   ti_sysbios_gates_GateMutexPri_Object__delete__S
c3033bc0   ti_sysbios_gates_GateMutex_Handle__label__S
c3033c20   ti_sysbios_gates_GateMutex_Instance_init__F
c3033c80   ti_sysbios_gates_GateMutex_Object__delete__S
c3033ce0   ti_sysbios_gates_GateSwi_Handle__label__S
c3033d40   ti_sysbios_gates_GateSwi_Object__delete__S
c3033da0   ti_sysbios_hal_Hwi_Instance_init__F
c3033e00   ti_sysbios_hal_Hwi_Object__delete__S
c3033e60   ti_sysbios_hal_Hwi_checkStack
c3033ec0   ti_sysbios_hal_Hwi_initStack
c3033f20   ti_sysbios_heaps_HeapMem_Handle__label__S
c3033f80   ti_sysbios_heaps_HeapMem_Object__delete__S
c3033fe0   ti_sysbios_knl_Clock_setupTimerToSkipTicks__E
c3034040   ti_sysbios_knl_Semaphore_Instance_init__F
c30340a0   ti_sysbios_knl_Semaphore_Object__delete__S
c3034100   ti_sysbios_knl_Semaphore_pendTimeout__I
c3034160   ti_sysbios_knl_Swi_Module_startup__F
c30341c0   ti_sysbios_knl_Task_Object__delete__S
c3034220   ti_sysbios_knl_Task_allBlockedFunction__I
c3034280   ti_sysbios_knl_Task_enter__I
c30342e0   ti_sysbios_xdcruntime_GateThreadSupport_Object__delete__S
c3034340   ti_syslink_ipc_rtos_Syslink_attach
c30343a0   writemsg
c30343f8   C$$IO$$
c3034400   xdc_runtime_GateNull_Handle__label__S
c3034460   xdc_runtime_GateNull_Object__create__S
c30344c0   xdc_runtime_GateNull_Object__delete__S
c3034520   xdc_runtime_LoggerBuf_Handle__label__S
c3034580   xdc_runtime_LoggerBuf_Object__delete__S
c30345e0   xdc_runtime_Memory_calloc__F
c3034640   xdc_runtime_Memory_valloc__F
c30346a0   xdc_runtime_SysMin_Module_startup__F
c3034700   xdc_runtime_SysMin_exit__F
c3034760   xdc_runtime_System_aprintf_va__F
c30347c0   xdc_runtime_System_printf_va__F
c3034820   xdc_runtime_Text_cordText__F
c3034880   xdc_runtime_knl_GateThread_Handle__label__S
c30348e0   xdc_runtime_knl_GateThread_Object__delete__S
c3034940   Notify_intLineRegistered
c30349c0   _ZN10COMPARETABC1Ev
c3034a00   _ZN10DelayStartC1Ev
c3034a40   _ZN10HIGHANALOG6ConfigE8NODEDATA
c3034a80   _ZN10HIGHANALOGC1Ev
c3034ac0   _ZN10StopConter6ConfigE8NODEDATA
c3034b00   _ZN10StopConterC1Ev
c3034b40   _ZN11ConterSleep6ConfigE8NODEDATA
c3034b80   _ZN11ConterSleepC1Ev
c3034bc0   _ZN11HighCurrent7HighFunEff
c3034c00   _ZN11StartConterC1Ev
c3034c40   _ZN12ANALOGSTEADYC1Ev
c3034c80   _ZN12ConterRuning6ConfigE8NODEDATA
c3034cc0   _ZN12ConterRuningC1Ev
c3034d00   _ZN12CurrentCheck10ReadSoeIRFEv
c3034d40   _ZN12LOWANALOGTABC1Ev
c3034d80   _ZN12LocalProtectD1Ev
c3034dc0   _ZN13ConterReached6ConfigE8NODEDATA
c3034e00   _ZN13ConterReachedC1Ev
c3034e40   _ZN13DelayStartTABC1Ev
c3034e80   _ZN13HIGHANALOGTABC1Ev
c3034ec0   _ZN13StopConterTABC1Ev
c3034f00   _ZN14ConterSleepTABC1Ev
c3034f40   _ZN14StartConterTABC1Ev
c3034f80   _ZN15ANALOGSTEADYTABC1Ev
c3034fc0   _ZN15ConterDelayPlus10StopConterEP9setmstime
c3035000   _ZN15ConterRuningTABC1Ev
c3035040   _ZN15DelayStartDelayC1Ev
c3035080   _ZN16ConterReachedTABC1Ev
c30350c0   _ZN18DelayStartDelayTABC1Ev
c3035100   _ZN2OR3funEv
c3035140   _ZN2OR6ConfigE8NODEDATA
c3035180   _ZN2ORC1Ev
c30351c0   _ZN3AND3funEv
c3035200   _ZN3AND6ConfigE8NODEDATA
c3035240   _ZN3ANDC1Ev
c3035280   _ZN3NOT3funEv
c30352c0   _ZN3NOT6ConfigE8NODEDATA
c3035300   _ZN3NOTC1Ev
c3035340   _ZN3XOR6ConfigE8NODEDATA
c3035380   _ZN3XORC1Ev
c30353c0   _ZN4NAND3funEv
c3035400   _ZN4NAND6ConfigE8NODEDATA
c3035440   _ZN4NANDC1Ev
c3035480   _ZN4XNOR6ConfigE8NODEDATA
c30354c0   _ZN4XNORC1Ev
c3035500   _ZN5EQUAL3funEv
c3035540   _ZN5EQUAL6ConfigE8NODEDATA
c3035580   _ZN5EQUALC1Ev
c30355c0   _ZN5ORTABC1Ev
c3035600   _ZN5PulseC1Ev
c3035640   _ZN6ANDTABC1Ev
c3035680   _ZN6FAPARAC1Ev
c30356c0   _ZN6NOTTABC1Ev
c3035700   _ZN6STEADY6ConfigE8NODEDATA
c3035740   _ZN6STEADYC1Ev
c3035780   _ZN6XORTABC1Ev
c30357c0   _ZN7BaseApp6GetMsgE11MessageDataI12BaseDataTypeE
c3035800   _ZN7BaseAppC1Ev
c3035840   _ZN7COMPAREC1Ev
c3035880   _ZN7NANDTABC1Ev
c30358c0   _ZN7NewToolI8BaseToolE3funEv
c3035900   _ZN7NewToolI8BaseToolEC1Ev
c3035940   _ZN7XNORTABC1Ev
c3035980   _ZN8EQUALTABC1Ev
c30359c0   _ZN8PulseTABC1Ev
c3035a00   _ZN9DataType4C1Ev
c3035a40   _ZN9LOWANALOG6ConfigE8NODEDATA
c3035a80   _ZN9LOWANALOGC1Ev
c3035ac0   _ZN9STEADYTABC1Ev
c3035b00   __c6xabi_frcmpyd_div
c3035b40   __c6xabi_isinf
c3035bc0   __c6xabi_llshru
c3035c00   __cxa_vec_dtor
c3035c40   __c6xabi_strasgi_64plus
c3035c40   __strasgi_64plus
c3035c80   _args_main
c3035cc0   ti_sysbios_family_c62_TaskSupport_buildTaskStack
c3035d00   ti_sysbios_family_xxx_Hwi_switchToIsrStack
c3035d40   free
c3035d80   llabs
c3035e00   ti_sdo_ipc_MessageQ_registerTransport__F
c3035e40   ti_sdo_ipc_MessageQ_unregisterTransport__F
c3035e80   ti_sdo_ipc_Notify_exec__F
c3035ec0   ti_sdo_ipc_SharedRegion_resetInternalFields__F
c3035f00   ti_sdo_ipc_family_da830_InterruptDsp_intClear__E
c3035f40   ti_sdo_ipc_family_da830_InterruptDsp_intSend__E
c3035f80   ti_sdo_ipc_nsremote_NameServerRemoteNotify_sharedMemReq__E
c3035fc0   ti_sdo_utils_List_get__E
c3036000   ti_sdo_utils_List_putHead__E
c3036040   ti_sdo_utils_List_put__E
c3036080   ti_sdo_utils_NameServer_Module__startupDone__F
c30360c0   ti_sdo_utils_NameServer_Object__get__S
c3036100   ti_sdo_utils_NameServer_registerRemoteDriver__E
c3036140   ti_sdo_utils_NameServer_unregisterRemoteDriver__E
c3036180   ti_sysbios_BIOS_startFunc__I
c30361c0   ti_sysbios_family_c64p_Hwi_Module__startupDone__F
c3036200   ti_sysbios_family_c64p_Hwi_disableInterrupt__E
c3036240   ti_sysbios_family_c64p_Hwi_enableInterrupt__E
c3036280   ti_sysbios_gates_GateAll_leave__E
c30362c0   ti_sysbios_gates_GateMutexPri_Instance_init__F
c3036300   ti_sysbios_gates_GateMutexPri_Object__destruct__S
c3036340   ti_sysbios_gates_GateMutex_leave__E
c3036380   ti_sysbios_hal_Hwi_Instance_finalize__F
c30363c0   ti_sysbios_hal_Timer_Module__startupDone__F
c3036400   ti_sysbios_heaps_HeapMem_Object__get__S
c3036440   ti_sysbios_knl_Clock_Instance_finalize__F
c3036480   ti_sysbios_knl_Clock_Object__destruct__S
c30364c0   ti_sysbios_knl_Semaphore_Object__destruct__S
c3036500   ti_sysbios_knl_Swi_Object__destruct__S
c3036540   ti_sysbios_knl_Swi_Object__get__S
c3036580   ti_sysbios_knl_Task_Object__get__S
c30365c0   ti_sysbios_knl_Task_sleepTimeout__I
c3036600   ti_sysbios_timers_timer64_Timer_Module__startupDone__F
c3036640   ti_sysbios_xdcruntime_GateThreadSupport_Instance_init__F
c3036680   ti_syslink_ipc_rtos_Syslink_detach
c30366c0   xdc_runtime_Error_check__F
c3036700   xdc_runtime_Error_init__F
c3036740   xdc_runtime_LoggerBuf_Instance_finalize__F
c3036780   xdc_runtime_LoggerBuf_Object__get__S
c30367c0   xdc_runtime_LoggerBuf_write0__F
c3036800   xdc_runtime_LoggerBuf_write8__E
c3036840   xdc_runtime_Memory_free__F
c3036880   xdc_runtime_Registry_findById__F
c30368c0   xdc_runtime_System_abort__F
c3036900   xdc_runtime_System_aprintf__E
c3036940   xdc_runtime_System_printf__E
c3036980   xdc_runtime_Text_matchRope__F
c30369c0   xdc_runtime_Text_ropeText__F
c3036a00   xdc_runtime_knl_GateThread_Instance_finalize__F
c3036a40   xdc_runtime_knl_GateThread_Instance_init__F
c3036a80   exp_ktable
c3036ab8   _lock
c3036abc   _unlock
c3036ac0   GateMP_enter
c3036ae0   GateMP_leave
c3036b00   NameServer_addUInt32
c3036b20   NameServer_removeEntry
c3036b40   _Z21__default_new_handlerv
c3036b60   _ZN10PassWdParaC1Ev
c3036b80   _ZN10Pro101ParaC1Ev
c3036ba0   _ZN10Pro104ParaC1Ev
c3036bc0   _ZN10ProtectSetC1Ev
c3036be0   _ZN10RecloseSetC1Ev
c3036c00   _ZN10__cxxabiv117__class_type_infoD0Ev
c3036c20   _ZN10__cxxabiv117__class_type_infoD1Ev
c3036c40   _ZN10__cxxabiv120__si_class_type_infoD0Ev
c3036c60   _ZN10__cxxabiv120__si_class_type_infoD1Ev
c3036c80   _ZN11ComBaseParaC1Ev
c3036ca0   _ZN11DeadAreaSetC1Ev
c3036cc0   _ZN11UserPortSetC1Ev
c3036ce0   _ZN12DbDigitInSetC1Ev
c3036d00   _ZN12WirelessParaC1Ev
c3036d20   _ZN13FaDevotionSetC1Ev
c3036d40   _ZN13ProtectDirSetC1Ev
c3036d60   _ZN14FaIsolationSetC1Ev
c3036d80   _ZN15FaConnectionSetC1Ev
c3036da0   _ZN17HisDataDefineParaC1Ev
c3036dc0   _ZN19UserRealDataDefParaC1Ev
c3036de0   _ZN2FAD1Ev
c3036e00   _ZN5Scada8WriteCfgEv
c3036e20   _ZN5ScadaD1Ev
c3036e40   _ZN5Stack6GetNumEv
c3036e60   _ZN7BaseApp3RunEPv
c3036e80   _ZN7BaseApp4InitEv
c3036ea0   _ZN7BaseApp7ReadCfgEv
c3036ec0   _ZN7BaseApp8WriteCfgEv
c3036ee0   _ZN7BaseAppC2Ev
c3036f00   _ZN7BaseAppD1Ev
c3036f20   _ZN7BaseAppD2Ev
c3036f40   _ZN7EthParaC1Ev
c3036f60   _ZN7NewToolI8BaseToolED1Ev
c3036f80   _ZN8BaseTool3funEv
c3036fa0   _ZN8BaseTool6ConfigE8NODEDATA
c3036fc0   _ZN8BaseToolC1Ev
c3036fe0   _ZN8BaseToolC2Ev
c3037000   _ZN8FaFunSetC1Ev
c3037020   _ZN8PowerWayC1Ev
c3037040   _ZN8UartParaC1Ev
c3037060   _ZN8WarnParaC1Ev
c3037080   _ZN8YCMsgSetC1Ev
c30370a0   _ZN8YKMsgSetC1Ev
c30370c0   _ZN8YXMsgSetC1Ev
c30370e0   _ZN9DataType1C1Ev
c3037100   _ZN9DataType2C1Ev
c3037120   _ZN9DataType3C1Ev
c3037140   _ZN9FaCommSetC1Ev
c3037160   _ZdaPv
c3037180   _ZdlPv
c30371a0   _Znaj
c30371c0   __c6xabi_negll
c30371e0   __c6xabi_trunc
c3037200   __cxa_atexit
c3037220   __cxa_ia64_exit
c3037240   __memzero
c3037260   __xdc__init
c3037280   _nop
c3037320   _register_lock
c3037340   _register_unlock
c3037360   ti_sysbios_family_c62_TaskSupport_glue
c3037380   ti_sysbios_family_xxx_Hwi_switchToTaskStack
c30373a0   C$$EXIT
c30373a0   abort
c30373c0   atexit
c3037400   remove
c3037420   ti_sdo_ipc_GateMP_Params__init__S
c3037440   ti_sdo_ipc_GateMP_RemoteCustom1Proxy_Object__create__S
c3037460   ti_sdo_ipc_GateMP_RemoteCustom1Proxy_Object__delete__S
c3037480   ti_sdo_ipc_GateMP_RemoteCustom1Proxy_Params__init__S
c30374a0   ti_sdo_ipc_GateMP_RemoteCustom1Proxy_Proxy__abstract__S
c30374c0   ti_sdo_ipc_GateMP_RemoteCustom1Proxy_Proxy__delegate__S
c30374e0   ti_sdo_ipc_GateMP_RemoteCustom1Proxy_getReservedMask__E
c3037500   ti_sdo_ipc_GateMP_RemoteCustom1Proxy_sharedMemReq__E
c3037520   ti_sdo_ipc_GateMP_RemoteCustom2Proxy_Object__create__S
c3037540   ti_sdo_ipc_GateMP_RemoteCustom2Proxy_Object__delete__S
c3037560   ti_sdo_ipc_GateMP_RemoteCustom2Proxy_Params__init__S
c3037580   ti_sdo_ipc_GateMP_RemoteCustom2Proxy_Proxy__abstract__S
c30375a0   ti_sdo_ipc_GateMP_RemoteCustom2Proxy_Proxy__delegate__S
c30375c0   ti_sdo_ipc_GateMP_RemoteCustom2Proxy_getReservedMask__E
c30375e0   ti_sdo_ipc_GateMP_RemoteCustom2Proxy_sharedMemReq__E
c3037600   ti_sdo_ipc_GateMP_RemoteSystemProxy_Object__create__S
c3037620   ti_sdo_ipc_GateMP_RemoteSystemProxy_Object__delete__S
c3037640   ti_sdo_ipc_GateMP_RemoteSystemProxy_Params__init__S
c3037660   ti_sdo_ipc_GateMP_RemoteSystemProxy_Proxy__abstract__S
c3037680   ti_sdo_ipc_GateMP_RemoteSystemProxy_Proxy__delegate__S
c30376a0   ti_sdo_ipc_GateMP_RemoteSystemProxy_getReservedMask__E
c30376c0   ti_sdo_ipc_GateMP_RemoteSystemProxy_sharedMemReq__E
c30376e0   ti_sdo_ipc_GateMP_attach__E
c3037700   ti_sdo_ipc_GateMP_getRegion0ReservedSize__E
c3037720   ti_sdo_ipc_GateMP_getSharedAddr__E
c3037740   ti_sdo_ipc_GateMP_getSharedAddr__F
c3037760   ti_sdo_ipc_GateMP_start__E
c3037780   ti_sdo_ipc_ListMP_Params__init__S
c30377a0   ti_sdo_ipc_MessageQ_Module_startup__E
c30377c0   ti_sdo_ipc_MessageQ_Object__get__S
c30377e0   ti_sdo_ipc_MessageQ_SetupTransportProxy_attach__E
c3037800   ti_sdo_ipc_MessageQ_SetupTransportProxy_detach__E
c3037820   ti_sdo_ipc_MessageQ_SetupTransportProxy_isRegistered__E
c3037840   ti_sdo_ipc_MessageQ_SetupTransportProxy_sharedMemReq__E
c3037860   ti_sdo_ipc_MessageQ_registerTransport__E
c3037880   ti_sdo_ipc_MessageQ_unregisterTransport__E
c30378a0   ti_sdo_ipc_Notify_Module_GateProxy_enter__E
c30378c0   ti_sdo_ipc_Notify_Module_GateProxy_leave__E
c30378e0   ti_sdo_ipc_Notify_Module_startup__E
c3037900   ti_sdo_ipc_Notify_SetupProxy_attach__E
c3037920   ti_sdo_ipc_Notify_SetupProxy_numIntLines__E
c3037940   ti_sdo_ipc_Notify_SetupProxy_sharedMemReq__E
c3037960   ti_sdo_ipc_Notify_detach__E
c3037980   ti_sdo_ipc_Notify_exec__E
c30379a0   ti_sdo_ipc_SharedRegion_attach__E
c30379c0   ti_sdo_ipc_SharedRegion_clearReservedMemory__E
c30379e0   ti_sdo_ipc_SharedRegion_reserveMemory__E
c3037a00   ti_sdo_ipc_SharedRegion_resetInternalFields__E
c3037a20   ti_sdo_ipc_SharedRegion_start__E
c3037a40   ti_sdo_ipc_family_da830_InterruptDsp_intDisable__E
c3037a60   ti_sdo_ipc_family_da830_InterruptDsp_intEnable__E
c3037a80   ti_sdo_ipc_family_da830_InterruptDsp_intUnregister__E
c3037aa0   ti_sdo_ipc_family_da830_NotifySetup_numIntLines__E
c3037ac0   ti_sdo_ipc_gates_GateMPSupportNull_Instance_init__F
c3037ae0   ti_sdo_ipc_gates_GateMPSupportNull_Params__init__S
c3037b00   ti_sdo_ipc_gates_GateMPSupportNull_enter__E
c3037b20   ti_sdo_ipc_gates_GateMPSupportNull_getReservedMask__E
c3037b40   ti_sdo_ipc_gates_GateMPSupportNull_leave__E
c3037b60   ti_sdo_ipc_gates_GateMPSupportNull_query__E
c3037b80   ti_sdo_ipc_gates_GateMPSupportNull_query__F
c3037ba0   ti_sdo_ipc_gates_GateMPSupportNull_sharedMemReq__E
c3037bc0   ti_sdo_ipc_gates_GatePeterson_Params__init__S
c3037be0   ti_sdo_ipc_gates_GatePeterson_getReservedMask__E
c3037c00   ti_sdo_ipc_gates_GatePeterson_query__E
c3037c20   ti_sdo_ipc_gates_GatePeterson_query__F
c3037c40   ti_sdo_ipc_heaps_HeapMemMP_Params__init__S
c3037c60   ti_sdo_ipc_heaps_HeapMemMP_isBlocking__E
c3037c80   ti_sdo_ipc_heaps_HeapMemMP_isBlocking__F
c3037ca0   ti_sdo_ipc_notifyDrivers_NotifyDriverShm_InterruptProxy_intClear__E
c3037cc0   ti_sdo_ipc_notifyDrivers_NotifyDriverShm_InterruptProxy_intDisable__E
c3037ce0   ti_sdo_ipc_notifyDrivers_NotifyDriverShm_InterruptProxy_intEnable__E
c3037d00   ti_sdo_ipc_notifyDrivers_NotifyDriverShm_InterruptProxy_intRegister__E
c3037d20   ti_sdo_ipc_notifyDrivers_NotifyDriverShm_InterruptProxy_intSend__E
c3037d40   ti_sdo_ipc_notifyDrivers_NotifyDriverShm_InterruptProxy_intUnregister__E
c3037d60   ti_sdo_ipc_notifyDrivers_NotifyDriverShm_Params__init__S
c3037d80   ti_sdo_ipc_notifyDrivers_NotifyDriverShm_disable__E
c3037da0   ti_sdo_ipc_notifyDrivers_NotifyDriverShm_enable__E
c3037dc0   ti_sdo_ipc_notifyDrivers_NotifyDriverShm_sharedMemReq__E
c3037de0   ti_sdo_ipc_nsremote_NameServerRemoteNotify_Object__first__S
c3037e00   ti_sdo_ipc_nsremote_NameServerRemoteNotify_Object__next__S
c3037e20   ti_sdo_ipc_nsremote_NameServerRemoteNotify_Params__init__S
c3037e40   ti_sdo_ipc_nsremote_NameServerRemoteNotify_cbFxn__I
c3037e60   ti_sdo_ipc_nsremote_NameServerRemoteNotify_get__E
c3037e80   ti_sdo_ipc_transports_TransportShmSetup_isRegistered__E
c3037ea0   ti_sdo_ipc_transports_TransportShm_Params__init__S
c3037ec0   ti_sdo_ipc_transports_TransportShm_close__E
c3037ee0   ti_sdo_ipc_transports_TransportShm_close__F
c3037f00   ti_sdo_ipc_transports_TransportShm_control__E
c3037f20   ti_sdo_ipc_transports_TransportShm_getStatus__E
c3037f40   ti_sdo_ipc_transports_TransportShm_notifyFxn__I
c3037f60   ti_sdo_ipc_transports_TransportShm_openByAddr__E
c3037f80   ti_sdo_ipc_transports_TransportShm_setErrFxn__E
c3037fa0   ti_sdo_ipc_transports_TransportShm_setErrFxn__F
c3037fc0   ti_sdo_ipc_transports_TransportShm_sharedMemReq__E
c3037fe0   ti_sdo_utils_List_Instance_init__F
c3038000   ti_sdo_utils_List_Object__destruct__S
c3038020   ti_sdo_utils_List_Object__get__S
c3038040   ti_sdo_utils_MultiProc_getClusterId__E
c3038060   ti_sdo_utils_MultiProc_getClusterId__F
c3038080   ti_sdo_utils_NameServer_Module__startupDone__S
c30380a0   ti_sdo_utils_NameServer_Module_startup__E
c30380c0   ti_sdo_utils_NameServer_Object__first__S
c30380e0   ti_sdo_utils_NameServer_Object__next__S
c3038100   ti_sdo_utils_NameServer_SetupProxy_attach__E
c3038120   ti_sdo_utils_NameServer_SetupProxy_detach__E
c3038140   ti_sdo_utils_NameServer_SetupProxy_sharedMemReq__E
c3038160   ti_sysbios_BIOS_RtsGateProxy_enter__E
c3038180   ti_sysbios_BIOS_RtsGateProxy_leave__E
c30381a0   ti_sysbios_BIOS_getThreadType__E
c30381c0   ti_sysbios_BIOS_setThreadType__E
c30381e0   ti_sysbios_family_c62_TaskSupport_Module__startupDone__S
c3038200   ti_sysbios_family_c62_TaskSupport_checkStack__E
c3038220   ti_sysbios_family_c62_TaskSupport_getStackAlignment__E
c3038240   ti_sysbios_family_c64p_Cache_Module_startup__E
c3038260   ti_sysbios_family_c64p_Cache_invL1pAll__E
c3038280   ti_sysbios_family_c64p_Cache_inv__E
c30382a0   ti_sysbios_family_c64p_Cache_wbInv__E
c30382c0   ti_sysbios_family_c64p_Exception_Module_startup__E
c30382e0   ti_sysbios_family_c64p_Hwi_Module__startupDone__S
c3038300   ti_sysbios_family_c64p_Hwi_Module_startup__E
c3038320   ti_sysbios_family_c64p_Hwi_Params__init__S
c3038340   ti_sysbios_family_c64p_Hwi_clearInterrupt__E
c3038360   ti_sysbios_family_c64p_Hwi_getHandle__E
c3038380   ti_sysbios_family_c64p_Hwi_startup__E
c30383a0   ti_sysbios_family_c64p_Hwi_switchFromBootStack__E
c30383c0   ti_sysbios_family_c64p_Hwi_unPluggedInterrupt__I
c30383e0   ti_sysbios_family_c64p_TimestampProvider_Module_startup__E
c3038400   ti_sysbios_family_c64p_TimestampProvider_Module_startup__F
c3038420   ti_sysbios_family_c64p_TimestampProvider_get64__E
c3038440   ti_sysbios_gates_GateAll_Instance_init__F
c3038460   ti_sysbios_gates_GateAll_query__E
c3038480   ti_sysbios_gates_GateAll_query__F
c30384a0   ti_sysbios_gates_GateHwi_Instance_init__F
c30384c0   ti_sysbios_gates_GateHwi_enter__E
c30384e0   ti_sysbios_gates_GateHwi_leave__E
c3038500   ti_sysbios_gates_GateHwi_query__E
c3038520   ti_sysbios_gates_GateHwi_query__F
c3038540   ti_sysbios_gates_GateMutexPri_Instance_finalize__F
c3038560   ti_sysbios_gates_GateMutexPri_query__E
c3038580   ti_sysbios_gates_GateMutexPri_query__F
c30385a0   ti_sysbios_gates_GateMutex_Instance_finalize__F
c30385c0   ti_sysbios_gates_GateMutex_query__E
c30385e0   ti_sysbios_gates_GateMutex_query__F
c3038600   ti_sysbios_gates_GateSwi_Instance_init__F
c3038620   ti_sysbios_gates_GateSwi_enter__E
c3038640   ti_sysbios_gates_GateSwi_leave__E
c3038660   ti_sysbios_gates_GateSwi_query__E
c3038680   ti_sysbios_gates_GateSwi_query__F
c30386a0   ti_sysbios_hal_Cache_CacheProxy_inv__E
c30386c0   ti_sysbios_hal_Cache_CacheProxy_wbInv__E
c30386e0   ti_sysbios_hal_Cache_inv__E
c3038700   ti_sysbios_hal_Cache_wbInv__E
c3038720   ti_sysbios_hal_Hwi_HwiProxy_Module__startupDone__S
c3038740   ti_sysbios_hal_Hwi_HwiProxy_Object__create__S
c3038760   ti_sysbios_hal_Hwi_HwiProxy_Object__delete__S
c3038780   ti_sysbios_hal_Hwi_HwiProxy_clearInterrupt__E
c30387a0   ti_sysbios_hal_Hwi_HwiProxy_disableInterrupt__E
c30387c0   ti_sysbios_hal_Hwi_HwiProxy_enableInterrupt__E
c30387e0   ti_sysbios_hal_Hwi_HwiProxy_startup__E
c3038800   ti_sysbios_hal_Hwi_HwiProxy_switchFromBootStack__E
c3038820   ti_sysbios_hal_Hwi_Module_startup__E
c3038840   ti_sysbios_hal_Hwi_Module_startup__F
c3038860   ti_sysbios_hal_Hwi_Params__init__S
c3038880   ti_sysbios_hal_Hwi_enableInterrupt__E
c30388a0   ti_sysbios_hal_Hwi_startup__E
c30388c0   ti_sysbios_hal_Timer_Module__startupDone__S
c30388e0   ti_sysbios_hal_Timer_Module_startup__E
c3038900   ti_sysbios_hal_Timer_Module_startup__F
c3038920   ti_sysbios_hal_Timer_TimerProxy_Module__startupDone__S
c3038940   ti_sysbios_hal_Timer_TimerProxy_getExpiredCounts__E
c3038960   ti_sysbios_hal_Timer_TimerProxy_getPeriod__E
c3038980   ti_sysbios_hal_Timer_TimerProxy_setNextTick__E
c30389a0   ti_sysbios_hal_Timer_TimerProxy_startup__E
c30389c0   ti_sysbios_hal_Timer_startup__E
c30389e0   ti_sysbios_heaps_HeapMem_Module_GateProxy_enter__E
c3038a00   ti_sysbios_heaps_HeapMem_Module_GateProxy_leave__E
c3038a20   ti_sysbios_heaps_HeapMem_Module_GateProxy_query__E
c3038a40   ti_sysbios_heaps_HeapMem_isBlocking__E
c3038a60   ti_sysbios_knl_Clock_Module_startup__E
c3038a80   ti_sysbios_knl_Clock_Params__init__S
c3038aa0   ti_sysbios_knl_Clock_logTick__E
c3038ac0   ti_sysbios_knl_Queue_Instance_init__F
c3038ae0   ti_sysbios_knl_Queue_Object__destruct__S
c3038b00   ti_sysbios_knl_Queue_Object__get__S
c3038b20   ti_sysbios_knl_Queue_empty__E
c3038b40   ti_sysbios_knl_Semaphore_Instance_finalize__F
c3038b60   ti_sysbios_knl_Semaphore_Params__init__S
c3038b80   ti_sysbios_knl_Swi_Instance_finalize__F
c3038ba0   ti_sysbios_knl_Swi_Module_startup__E
c3038bc0   ti_sysbios_knl_Swi_Params__init__S
c3038be0   ti_sysbios_knl_Swi_disable__E
c3038c00   ti_sysbios_knl_Task_Module_startup__E
c3038c20   ti_sysbios_knl_Task_Object__first__S
c3038c40   ti_sysbios_knl_Task_Object__next__S
c3038c60   ti_sysbios_knl_Task_Params__init__S
c3038c80   ti_sysbios_knl_Task_SupportProxy_Module__startupDone__S
c3038ca0   ti_sysbios_knl_Task_SupportProxy_checkStack__E
c3038cc0   ti_sysbios_knl_Task_SupportProxy_getStackAlignment__E
c3038ce0   ti_sysbios_knl_Task_SupportProxy_start__E
c3038d00   ti_sysbios_knl_Task_SupportProxy_swap__E
c3038d20   ti_sysbios_knl_Task_disable__E
c3038d40   ti_sysbios_knl_Task_getPri__E
c3038d60   ti_sysbios_knl_Task_self__E
c3038d80   ti_sysbios_timers_timer64_Timer_Module__startupDone__S
c3038da0   ti_sysbios_timers_timer64_Timer_Module_startup__E
c3038dc0   ti_sysbios_timers_timer64_Timer_Params__init__S
c3038de0   ti_sysbios_timers_timer64_Timer_TimerSupportProxy_enable__E
c3038e00   ti_sysbios_timers_timer64_Timer_setNextTick__E
c3038e20   ti_sysbios_xdcruntime_GateThreadSupport_Instance_finalize__F
c3038e40   ti_sysbios_xdcruntime_GateThreadSupport_enter__E
c3038e60   ti_sysbios_xdcruntime_GateThreadSupport_enter__F
c3038e80   ti_sysbios_xdcruntime_GateThreadSupport_leave__E
c3038ea0   ti_sysbios_xdcruntime_GateThreadSupport_leave__F
c3038ec0   ti_sysbios_xdcruntime_GateThreadSupport_query__E
c3038ee0   ti_sysbios_xdcruntime_GateThreadSupport_query__F
c3038f00   xdc_runtime_Diags_setMask__E
c3038f20   xdc_runtime_Error_check__E
c3038f40   xdc_runtime_Error_init__E
c3038f60   xdc_runtime_Error_print__E
c3038f80   xdc_runtime_Error_raiseX__E
c3038fa0   xdc_runtime_GateNull_enter__E
c3038fc0   xdc_runtime_GateNull_enter__F
c3038fe0   xdc_runtime_GateNull_leave__E
c3039000   xdc_runtime_GateNull_leave__F
c3039020   xdc_runtime_GateNull_query__E
c3039040   xdc_runtime_GateNull_query__F
c3039060   xdc_runtime_Gate_enterSystem__E
c3039080   xdc_runtime_Gate_enterSystem__F
c30390a0   xdc_runtime_Gate_leaveSystem__E
c30390c0   xdc_runtime_Gate_leaveSystem__F
c3039120   xdc_runtime_LoggerBuf_Module_GateProxy_enter__E
c3039140   xdc_runtime_LoggerBuf_Module_GateProxy_leave__E
c3039160   xdc_runtime_LoggerBuf_Module_startup__E
c3039180   xdc_runtime_LoggerBuf_TimestampProxy_get64__E
c30391a0   xdc_runtime_LoggerBuf_disable__E
c30391c0   xdc_runtime_LoggerBuf_disable__F
c30391e0   xdc_runtime_LoggerBuf_enable__E
c3039200   xdc_runtime_LoggerBuf_enable__F
c3039220   xdc_runtime_LoggerBuf_getFilterLevel__E
c3039240   xdc_runtime_LoggerBuf_setFilterLevel__E
c3039260   xdc_runtime_LoggerBuf_write0__E
c3039280   xdc_runtime_LoggerBuf_write1__E
c30392a0   xdc_runtime_LoggerBuf_write1__F
c30392c0   xdc_runtime_LoggerBuf_write2__E
c30392e0   xdc_runtime_LoggerBuf_write2__F
c3039300   xdc_runtime_LoggerBuf_write4__E
c3039320   xdc_runtime_Memory_HeapProxy_alloc__E
c3039340   xdc_runtime_Memory_HeapProxy_free__E
c3039360   xdc_runtime_Memory_alloc__E
c3039380   xdc_runtime_Memory_calloc__E
c30393a0   xdc_runtime_Memory_free__E
c30393c0   xdc_runtime_Memory_getMaxDefaultTypeAlign__E
c30393e0   xdc_runtime_Memory_getMaxDefaultTypeAlign__F
c3039400   xdc_runtime_Memory_valloc__E
c3039420   xdc_runtime_Startup_Module__startupDone__S
c3039440   xdc_runtime_Startup_exec__E
c3039460   xdc_runtime_Startup_exec__I
c3039480   xdc_runtime_Startup_reset__I
c30394a0   xdc_runtime_SysMin_Module_startup__E
c30394c0   xdc_runtime_SysMin_abort__E
c30394e0   xdc_runtime_SysMin_exit__E
c3039500   xdc_runtime_SysMin_putch__E
c3039520   xdc_runtime_SysMin_ready__E
c3039540   xdc_runtime_SysMin_ready__F
c3039560   xdc_runtime_System_Module_GateProxy_enter__E
c3039580   xdc_runtime_System_Module_GateProxy_leave__E
c30395a0   xdc_runtime_System_Module_startup__E
c30395c0   xdc_runtime_System_Module_startup__F
c30395e0   xdc_runtime_System_SupportProxy_abort__E
c3039600   xdc_runtime_System_SupportProxy_exit__E
c3039620   xdc_runtime_System_SupportProxy_putch__E
c3039640   xdc_runtime_System_SupportProxy_ready__E
c3039660   xdc_runtime_System_abort__E
c3039680   xdc_runtime_System_atexit__E
c30396a0   xdc_runtime_System_exit__E
c30396c0   xdc_runtime_System_exit__F
c30396e0   xdc_runtime_System_lastFxn__I
c3039700   xdc_runtime_System_vsprintf__E
c3039720   xdc_runtime_System_vsprintf__F
c3039740   xdc_runtime_Text_cordText__E
c3039760   xdc_runtime_Text_matchRope__E
c3039780   xdc_runtime_Text_putLab__E
c30397a0   xdc_runtime_Text_putSite__E
c30397c0   xdc_runtime_Text_ropeText__E
c30397e0   xdc_runtime_Text_visitRope__I
c3039800   xdc_runtime_knl_GateThread_Module__startupDone__S
c3039820   xdc_runtime_knl_GateThread_Proxy_Object__create__S
c3039840   xdc_runtime_knl_GateThread_Proxy_Object__delete__S
c3039860   xdc_runtime_knl_GateThread_Proxy_enter__E
c3039880   xdc_runtime_knl_GateThread_Proxy_leave__E
c30398a0   xdc_runtime_knl_GateThread_Proxy_query__E
c30398c0   xdc_runtime_knl_GateThread_enter__E
c30398e0   xdc_runtime_knl_GateThread_enter__F
c3039900   xdc_runtime_knl_GateThread_leave__E
c3039920   xdc_runtime_knl_GateThread_leave__F
c3039940   xdc_runtime_knl_GateThread_query__E
c3039960   xdc_runtime_knl_GateThread_query__F
c3039a10   varm
c3049aa8   ti_sdo_utils_NameServer_Module_State_0_nsRemoteHandle__A
c3049ab0   ti_sysbios_heaps_HeapMem_Instance_State_0_buf__A
c304dab0   ti_sysbios_knl_Task_Instance_State_0_hookEnv__A
c304dab8   xdc_runtime_LoggerBuf_Instance_State_0_entryArr__A
c304eab8   xdc_runtime_SysMin_Module_State_0_outbuf__A
c304fab8   user_data
c304fae0   data_buf
c30538d8   YxCurrent
c30538e8   YxStatus
c30538f8   YxNature
c3053918   DpYxCurrent
c3053920   DpYx
c3053924   d_5085
c30539f4   d_5089
c3053a68   SoeBuffer
c3054ad8   d_50AD
c3054bb0   d_50AE
c3054c88   d_50AF
c3054d60   d_520A
c3054d70   d_520B
c3054d80   d_520C
c3054d90   d_520D
c3054da0   TemLimit
c3054db0   HumLimit
c3054dc0   YueXianYx
c30551e0   YxConfigure
c3055210   d_5090
c3055218   ConterSleepTab
c305524c   ConterRuningTab
c3055280   ConterReachedTab
c30552b4   StopConterTab
c30552e0   StartConterTab
c3055348   DelayStartDelayTab
c30553c0   PulseTab
c3055a58   DelayStartTab
c3055d60   AnalogsteadyTab
c3055e24   CompareTab
c3055ed0   LowanalogTab
c3055fc4   HighanalogTab
c30560b8   SteadyTab
c30560dc   XnorTab
c3056100   XorTab
c3056164   OrTab
c3056288   NandTab
c30562ac   AndTab
c3056710   NotTab
c30567b4   EqualTab
c3056ad8   YcData
c3057ab0   ti_sysbios_knl_Task_Instance_State_0_stack__A
c30582b0   task
c30588b8   YKtimeOut
c30588e0   YkGapTime
c3058908   BrkPro
c3058a48   d_5054
c3058a58   DiffVolP
c3058a60   DiffVolName
c3058a64   d_508A
c3058b34   d_5091
c3058b3c   d_5092
c3058b44   d_5093
c3058b4c   d_5094
c3058b54   d_6001
c3058b5c   d_6002
c3058b64   d_6066
c3058b6c   msg
c3058d30   clk1
c3058d48   clk2
c3058d60   HwiTimerParams
c3058dc4   DynamictimerParams
c3058e28   ClockParams
c3058e4c   semparams
c3058e70   hwiParams
c3058e9c   GpioB0Int0Params
c3058ec8   BreakLockState
c3058ed0   YcRatio
c3059018   man_set
c3059058   _tmpnams
c3059268   syslink
c3059348   clk0
c3059398   FpgaCfg
c305cb24   _ft_end
c305e6f0   ti_sdo_ipc_GateMP_Module_State_0_remoteSystemGates__A
c305eef0   ti_sdo_ipc_GateMP_Module__root__V
c305eefc   ti_sdo_ipc_GateMP_Module__state__V
c305ef44   ti_sdo_ipc_Ipc_Module__root__V
c305ef48   ti_sdo_ipc_Ipc_Module__state__V
c305ef54   ti_sdo_ipc_ListMP_Module__root__V
c305ef60   ti_sdo_ipc_ListMP_Module__state__V
c305ef64   ti_sdo_ipc_MessageQ_Module__root__V
c305ef70   ti_sdo_ipc_MessageQ_Module__state__V
c305ef8c   ti_sdo_ipc_Notify_Module__root__V
c305ef98   ti_sdo_ipc_Notify_Module__state__V
c305efa0   ti_sdo_ipc_SharedRegion_Module__root__V
c305efa4   ti_sdo_ipc_SharedRegion_Module__state__V
c305efa8   ti_sdo_ipc_family_da830_InterruptDsp_Module__root__V
c305efaa   ti_sdo_ipc_family_da830_NotifySetup_Module__root__V
c305efac   ti_sdo_ipc_gates_GateMPSupportNull_Module__root__V
c305efb8   ti_sdo_ipc_gates_GatePeterson_Module__root__V
c305efc4   ti_sdo_ipc_heaps_HeapMemMP_Module__root__V
c305efd0   ti_sdo_ipc_heaps_HeapMemMP_Module__state__V
c305efd4   ti_sdo_ipc_notifyDrivers_NotifyDriverShm_Module__root__V
c305efe0   ti_sdo_ipc_nsremote_NameServerRemoteNotify_Module__root__V
c305efec   ti_sdo_ipc_transports_TransportShm_Module__root__V
c305eff8   ti_sdo_ipc_transports_TransportShmSetup_Module__root__V
c305effc   ti_sdo_ipc_transports_TransportShmSetup_Module__state__V
c305f000   ti_sdo_utils_List_Module__root__V
c305f00c   ti_sdo_utils_MultiProc_Module__root__V
c305f00e   ti_sdo_utils_MultiProc_Module__state__V
c305f014   ti_sdo_utils_NameServer_Module__root__V
c305f020   ti_sdo_utils_NameServer_Module__state__V
c305f028   ti_sdo_utils_NameServerRemoteNull_Module__root__V
c305f034   ti_sysbios_BIOS_Module__root__V
c305f038   ti_sysbios_BIOS_Module__state__V
c305f054   ti_sysbios_family_c62_IntrinsicsSupport_Module__root__V
c305f056   ti_sysbios_family_c62_TaskSupport_Module__root__V
c305f058   ti_sysbios_family_c64p_Cache_Module__root__V
c305f05c   ti_sysbios_family_c64p_Cache_Module__state__V
c305f060   ti_sysbios_family_c64p_Exception_Module__root__V
c305f064   ti_sysbios_family_c64p_Exception_Module__state__V
c305f090   ti_sysbios_family_c64p_Hwi_Module__root__V
c305f09c   ti_sysbios_family_c64p_Hwi_Module__state__V
c305f100   ti_sysbios_family_c64p_primus_TimerSupport_Module__root__V
c305f104   ti_sysbios_family_c64p_primus_TimerSupport_Module__state__V
c305f108   ti_sysbios_gates_GateAll_Module__root__V
c305f114   ti_sysbios_gates_GateHwi_Module__root__V
c305f120   ti_sysbios_gates_GateMutex_Module__root__V
c305f12c   ti_sysbios_gates_GateMutexPri_Module__root__V
c305f138   ti_sysbios_gates_GateSwi_Module__root__V
c305f144   ti_sysbios_hal_Cache_Module__root__V
c305f148   ti_sysbios_hal_Hwi_Module__root__V
c305f154   ti_sysbios_hal_Timer_Module__root__V
c305f160   ti_sysbios_heaps_HeapMem_Module__root__V
c305f16c   ti_sysbios_knl_Clock_Module__root__V
c305f178   ti_sysbios_knl_Clock_Module__state__V
c305f1a4   ti_sysbios_knl_Idle_Module__root__V
c305f1a6   ti_sysbios_knl_Intrinsics_Module__root__V
c305f1a8   ti_sysbios_knl_Queue_Module__root__V
c305f1b4   ti_sysbios_knl_Semaphore_Module__root__V
c305f1c0   ti_sysbios_knl_Swi_Module__root__V
c305f1cc   ti_sysbios_knl_Swi_Module__state__V
c305f1e8   ti_sysbios_knl_Task_Module__root__V
c305f1f4   ti_sysbios_knl_Task_Module__state__V
c305f228   ti_sysbios_syncs_SyncSem_Module__root__V
c305f234   ti_sysbios_timers_timer64_Timer_Module__root__V
c305f240   ti_sysbios_timers_timer64_Timer_Module__state__V
c305f254   ti_sysbios_xdcruntime_GateThreadSupport_Module__root__V
c305f260   xdc_runtime_Defaults_Module__root__V
c305f262   xdc_runtime_Error_Module__root__V
c305f264   xdc_runtime_Error_Module__state__V
c305f268   xdc_runtime_GateNull_Module__root__V
c305f270   xdc_runtime_LoggerBuf_Module__root__V
c305f278   xdc_runtime_LoggerBuf_Module__state__V
c305f27e   xdc_runtime_Main_Module__root__V
c305f280   xdc_runtime_Memory_Module__state__V
c305f284   xdc_runtime_Registry_Module__root__V
c305f288   xdc_runtime_Registry_Module__state__V
c305f290   xdc_runtime_Startup_Module__state__V
c305f298   xdc_runtime_SysMin_Module__state__V
c305f2a4   xdc_runtime_System_Module__state__V
c305f2b0   xdc_runtime_Text_Module__state__V
c305f2b8   xdc_runtime_knl_GateThread_Module__root__V
c305f2c4   __xdc__init__addr
c305f2c8   _ftable
c305f4a8   xdc_runtime_Diags_dictElems
c305f640   ti_sdo_utils_NameServer_Object__table__V
c305f7c0   ti_sdo_ipc_SharedRegion_Module_State_0_regions__A
c305f960   ti_sysbios_knl_Swi_Module_State_0_readyQ__A
c305f9e0   ti_sysbios_knl_Task_Module_State_0_readyQ__A
c305fbb8   ti_sysbios_timers_timer64_Timer_Module_State_0_device__A
c305fc18   ti_sysbios_timers_timer64_Timer_Object__table__V
c305fc64   errno
c305fc68   TSK_idle
c305fc68   ti_sysbios_knl_Task_Object__table__V
c305fcac   _new_handler
c305fd30   ti_sysbios_gates_GateMutex_Object__table__V
c305fd70   ti_sysbios_knl_Swi_Object__table__V
c305fda0   ti_sdo_ipc_Ipc_Module_State_0_procEntry__A
c305fdc8   xdc_runtime_LoggerBuf_Object__table__V
c305fdf0   ti_sdo_ipc_MessageQ_Module_State_0_heaps__A
c305fe10   ti_sysbios_timers_timer64_Timer_Module_State_0_gctrl__A
c305fe30   ti_sysbios_timers_timer64_Timer_Module_State_0_handles__A
c305fe50   ti_sysbios_timers_timer64_Timer_Module_State_0_intFreqs__A
c305fe70   xdc_runtime_System_Module_State_0_atexitHandlers__A
c305fe90   ti_sysbios_family_c64p_Hwi_Object__table__V
c305fea8   ti_sysbios_gates_GateMutexPri_Object__table__V
c305fec0   ti_sysbios_heaps_HeapMem_Object__table__V
c305fed8   ti_sdo_ipc_MessageQ_Module_State_0_transports__A
c305fee8   ti_sysbios_gates_GateAll_Object__table__V
c305fef8   _cleanup_ptr
c305fefc   _dtors_ptr
c305ff00   __TI_enable_exit_profile_output
c305ff08   ti_sysbios_gates_GateSwi_Object__table__V
c305ff18   ti_sdo_ipc_Notify_Module_State_0_notifyHandles__A
c305ff20   ti_sdo_ipc_transports_TransportShmSetup_Module_State_0_handles__A
c305ff28   ti_sysbios_family_c64p_primus_TimerSupport_Module_State_0_suspSrc__A
c305ff30   ti_sysbios_hal_Hwi_Object__table__V
c305ff38   ti_sysbios_hal_Timer_Object__table__V
c305ff40   ti_sdo_ipc_GateMP_Module_State_0_remoteCustom2Gates__A
c305ff48   ti_sdo_ipc_Notify_Module_State_0_notifyHandles_0__A
c305ff50   ti_sdo_ipc_Notify_Module_State_0_notifyHandles_1__A
c305ff58   ti_sysbios_gates_GateHwi_Object__table__V
c305ff60   xdc_runtime_GateNull_Object__table__V
c305ff68   xdc_runtime_Text_charTab__A
c3062d78   xdc_runtime_Text_nodeTab__A
c3062ee0   _ctypes_
c3063070   bitval_u32
c306316c   ti_sysbios_timers_timer64_Timer_Object__PARAMS__C
c30632b8   xdc_runtime_Startup_sfxnTab__A
c30632f8   xdc_runtime_LoggerBuf_Module__FXNS__C
c3063334   ti_sdo_ipc_notifyDrivers_NotifyDriverShm_Module__FXNS__C
c306336c   ti_sysbios_knl_Task_Object__PARAMS__C
c306340c   ti_sdo_ipc_GateMP_Object__PARAMS__C
c3063440   ti_sdo_ipc_notifyDrivers_NotifyDriverShm_Object__PARAMS__C
c3063474   ti_sdo_ipc_heaps_HeapMemMP_Object__PARAMS__C
c30634a4   ti_sysbios_family_c64p_Hwi_Object__PARAMS__C
c3063500   ti_sdo_ipc_ListMP_Object__PARAMS__C
c306352c   ti_sdo_ipc_gates_GateMPSupportNull_Module__FXNS__C
c3063558   ti_sdo_ipc_gates_GatePeterson_Module__FXNS__C
c3063584   ti_sysbios_hal_Hwi_Object__PARAMS__C
c30635b0   ti_sdo_ipc_heaps_HeapMemMP_Module__FXNS__C
c30635d8   ti_sdo_ipc_nsremote_NameServerRemoteNotify_Module__FXNS__C
c3063600   ti_sdo_ipc_transports_TransportShm_Module__FXNS__C
c3063628   ti_sdo_ipc_transports_TransportShm_Object__PARAMS__C
c3063650   ti_sysbios_heaps_HeapMem_Module__FXNS__C
c3063678   ti_sysbios_knl_Swi_Object__PARAMS__C
c30636a0   xdc_runtime_LoggerBuf_Object__PARAMS__C
c30636c8   _ZTSN10__cxxabiv120__si_class_type_infoE
c30636f0   ti_sdo_ipc_gates_GateMPSupportNull_Object__PARAMS__C
c3063714   ti_sdo_ipc_gates_GatePeterson_Object__PARAMS__C
c3063738   ti_sysbios_gates_GateAll_Module__FXNS__C
c306375c   ti_sysbios_gates_GateHwi_Module__FXNS__C
c3063780   ti_sysbios_gates_GateMutexPri_Module__FXNS__C
c30637a4   ti_sysbios_gates_GateMutex_Module__FXNS__C
c30637c8   ti_sysbios_gates_GateSwi_Module__FXNS__C
c30637ec   ti_sysbios_knl_Clock_Object__PARAMS__C
c3063810   ti_sysbios_knl_Semaphore_Object__PARAMS__C
c3063834   xdc_runtime_GateNull_Module__FXNS__C
c3063858   xdc_runtime_knl_GateThread_Module__FXNS__C
c30638a0   _ZTSN10__cxxabiv117__class_type_infoE
c3063904   ti_sdo_ipc_GateMP_Object__DESC__C
c3063924   ti_sdo_ipc_ListMP_Object__DESC__C
c3063944   ti_sdo_ipc_Notify_Object__DESC__C
c3063964   ti_sdo_ipc_gates_GateMPSupportNull_Object__DESC__C
c3063984   ti_sdo_ipc_gates_GatePeterson_Object__DESC__C
c30639a4   ti_sdo_ipc_heaps_HeapMemMP_Object__DESC__C
c30639c4   ti_sdo_ipc_notifyDrivers_NotifyDriverShm_Object__DESC__C
c30639e4   ti_sdo_ipc_nsremote_NameServerRemoteNotify_Object__DESC__C
c3063a04   ti_sdo_ipc_nsremote_NameServerRemoteNotify_Object__PARAMS__C
c3063a24   ti_sdo_ipc_transports_TransportShm_Object__DESC__C
c3063a44   ti_sdo_utils_List_Object__DESC__C
c3063a64   ti_sysbios_family_c64p_Hwi_Object__DESC__C
c3063a84   ti_sysbios_gates_GateAll_Object__DESC__C
c3063aa4   ti_sysbios_gates_GateHwi_Object__DESC__C
c3063ac4   ti_sysbios_gates_GateMutexPri_Object__DESC__C
c3063ae4   ti_sysbios_gates_GateMutex_Object__DESC__C
c3063b04   ti_sysbios_gates_GateSwi_Object__DESC__C
c3063b24   ti_sysbios_hal_Hwi_Object__DESC__C
c3063b44   ti_sysbios_heaps_HeapMem_Object__DESC__C
c3063b64   ti_sysbios_heaps_HeapMem_Object__PARAMS__C
c3063b84   ti_sysbios_knl_Clock_Object__DESC__C
c3063ba4   ti_sysbios_knl_Queue_Object__DESC__C
c3063bc4   ti_sysbios_knl_Semaphore_Object__DESC__C
c3063be4   ti_sysbios_knl_Swi_Object__DESC__C
c3063c04   ti_sysbios_knl_Task_Object__DESC__C
c3063c24   ti_sysbios_timers_timer64_Timer_Object__DESC__C
c3063c44   ti_sysbios_xdcruntime_GateThreadSupport_Object__DESC__C
c3063c64   xdc_runtime_GateNull_Object__DESC__C
c3063c84   xdc_runtime_LoggerBuf_Object__DESC__C
c3063ca8   xdc_runtime_Startup_sfxnRts__A
c3063cc8   xdc_runtime_knl_GateThread_Object__DESC__C
c3063ce8   _ZZN18DelayStartDelayTAB6GetLabEvEs
c3063d08   _ZTV2FA
c3063d24   ti_sdo_ipc_GateMP_E_gateUnavailable__C
c3063d28   _ZTV4Varm
c3063d44   ti_sdo_ipc_GateMP_E_localGate__C
c3063d48   _ZTV5Scada
c3063d64   ti_sdo_ipc_Ipc_E_internal__C
c3063d68   _ZTV7BaseApp
c3063d84   ti_sdo_ipc_Ipc_E_nameFailed__C
c3063d88   _ZTV7Message
c3063da4   ti_sdo_ipc_Ipc_E_versionMismatch__C
c3063da8   _ZZN16ConterReachedTAB6GetLabEvEs
c3063dc4   ti_sdo_ipc_Ipc_numUserFxns__C
c3063dc8   _ZZN15ANALOGSTEADYTAB6GetLabEvEs
c3063de4   ti_sdo_ipc_Ipc_procSync__C
c3063de8   _ZZN15ConterRuningTAB6GetLabEvEs
c3063e04   ti_sdo_ipc_Ipc_userFxns__C
c3063e08   _ZZN14ConterSleepTAB6GetLabEvEs
c3063e24   ti_sdo_ipc_MessageQ_Instance_State_highList__O
c3063e28   _ZZN14StartConterTAB6GetLabEvEs
c3063e44   ti_sdo_ipc_MessageQ_Instance_State_normalList__O
c3063e48   _ZZN12LocalProtectC1EvEs
c3063e60   _ZZN13DelayStartTAB6GetLabEvEs
c3063e78   _ZZN13HIGHANALOGTAB6GetLabEvEs
c3063e90   _ZZN13StopConterTAB6GetLabEvEs
c3063ea8   ti_sdo_ipc_Notify_Object__PARAMS__C
c3063ec0   ti_sdo_utils_List_Object__PARAMS__C
c3063ed8   ti_sysbios_gates_GateAll_Object__PARAMS__C
c3063ef0   ti_sysbios_gates_GateHwi_Object__PARAMS__C
c3063f08   ti_sysbios_gates_GateMutexPri_Object__PARAMS__C
c3063f20   ti_sysbios_gates_GateMutex_Object__PARAMS__C
c3063f38   ti_sysbios_gates_GateSwi_Object__PARAMS__C
c3063f50   ti_sysbios_knl_Queue_Object__PARAMS__C
c3063f68   ti_sysbios_knl_Task_hooks__A
c3063f80   ti_sysbios_xdcruntime_GateThreadSupport_Object__PARAMS__C
c3063f98   xdc_runtime_GateNull_Object__PARAMS__C
c3063fb0   xdc_runtime_knl_GateThread_Object__PARAMS__C
c3063fc8   _ZZN12LOWANALOGTAB6GetLabEvEs
c3063fe0   _ZZN10COMPARETAB6GetLabEvEs
c3063ff8   _ZZN9STEADYTAB6GetLabEvEs
c306400c   ti_sdo_ipc_MessageQ_Object__count__C
c3064010   _ZZN8EQUALTAB6GetLabEvEs
c3064024   ti_sdo_ipc_Notify_Module__gateObj__C
c3064028   _ZZN8PulseTAB6GetLabEvEs
c306403c   ti_sdo_ipc_Notify_Object__heap__C
c3064040   _ZTS15DelayStartDelay
c3064054   ti_sdo_ipc_Notify_numEvents__C
c3064058   _ZZN7NANDTAB6GetLabEvEs
c306406c   ti_sdo_ipc_Notify_sendEventPollCount__C
c3064070   _ZZN7XNORTAB6GetLabEvEs
c3064084   ti_sdo_ipc_SharedRegion_INVALIDSRPTR__C
c3064088   _ZZN9ActionOutC1EvEs
c306409c   ti_sdo_ipc_SharedRegion_cacheLineSize__C
c30640a0   _ZZN6ANDTAB6GetLabEvEs
c30640b4   ti_sdo_ipc_SharedRegion_numOffsetBits__C
c30640b8   _ZZN6NOTTAB6GetLabEvEs
c30640cc   ti_sdo_ipc_SharedRegion_offsetMask__C
c30640d0   _ZZN6XORTAB6GetLabEvEs
c30640e4   ti_sdo_ipc_family_da830_NotifySetup_armRecvIntId0__C
c306410c   ti_sdo_ipc_family_da830_NotifySetup_armRecvIntId1__C
c3064110   _ZTS13ConterReached
c3064120   _ZTV10DelayStart
c3064130   _ZTV10HIGHANALOG
c3064140   _ZTV10StopConter
c3064150   _ZTV11ConterSleep
c3064160   _ZTV11StartConter
c3064170   _ZTV12ANALOGSTEADY
c3064180   _ZTV12ConterRuning
c3064190   _ZTV13ConterReached
c30641a0   _ZTV15DelayStartDelay
c30641b0   _ZTV2OR
c30641c0   _ZTV3AND
c30641d0   _ZTV3NOT
c30641e0   _ZTV3XOR
c30641f0   _ZTV4NAND
c3064200   _ZTV4XNOR
c3064210   _ZTV5EQUAL
c3064220   _ZTV5Pulse
c3064230   _ZTV6STEADY
c3064240   _ZTV7COMPARE
c3064250   _ZTV8BaseTool
c3064260   _ZTV9LOWANALOG
c3064270   _ZTVN10__cxxabiv117__class_type_infoE
c3064280   _ZTVN10__cxxabiv120__si_class_type_infoE
c3064290   _ZZN5ORTAB6GetLabEvEs
c30642a0   _ZTS12ANALOGSTEADY
c30642b0   _ZTS12ConterRuning
c30642c0   _ZTS11ConterSleep
c30642d0   _ZTS11StartConter
c30642e0   _ZTS10DelayStart
c30642f0   _ZTS10HIGHANALOG
c3064300   _ZTS10StopConter
c3064310   _ZTSSt9type_info
c3064320   _ZTI10DelayStart
c306432c   _ZTI10HIGHANALOG
c3064338   _ZTI10StopConter
c3064344   _ZTI11ConterSleep
c3064350   _ZTI11StartConter
c306435c   _ZTI12ANALOGSTEADY
c3064368   _ZTI12ConterRuning
c3064374   _ZTI13ConterReached
c3064380   _ZTI15DelayStartDelay
c306438c   _ZTI2FA
c3064398   _ZTI2OR
c30643a4   _ZTI3AND
c30643b0   _ZTI3NOT
c30643bc   _ZTI3XOR
c30643c8   _ZTI4NAND
c30643d4   _ZTI4Varm
c30643e0   _ZTI4XNOR
c30643ec   _ZTI5EQUAL
c30643f8   _ZTI5Pulse
c3064404   _ZTI5Scada
c3064410   _ZTI6STEADY
c306441c   _ZTI7COMPARE
c3064428   _ZTI7Message
c3064434   _ZTI9LOWANALOG
c3064440   _ZTIN10__cxxabiv117__class_type_infoE
c306444c   _ZTIN10__cxxabiv120__si_class_type_infoE
c3064464   ti_sdo_ipc_family_da830_NotifySetup_dspIntVectId0__C
c3064468   ti_sdo_ipc_Ipc_userFxns__A
c3064474   ti_sysbios_family_c64p_Cache_initSize__C
c3064480   _ZTS9LOWANALOG
c306448c   ti_sdo_ipc_family_da830_NotifySetup_dspIntVectId1__C
c306449c   ti_sdo_ipc_family_da830_NotifySetup_dspRecvIntId0__C
c30644a0   _ZTS8BaseTool
c30644ac   ti_sdo_ipc_family_da830_NotifySetup_dspRecvIntId1__C
c30644b0   _ZTS7BaseApp
c30644bc   ti_sdo_ipc_gates_GatePeterson_E_gateRemotelyOpened__C
c30644c0   _ZTS7COMPARE
c30644cc   ti_sdo_ipc_heaps_HeapMemMP_E_memory__C
c30644d0   _ZTS7Message
c30644dc   ti_sdo_ipc_interfaces_IGateMPSupport_Interface__BASE__C
c30644fc   _ZTI7BaseApp
c3064504   _ZTI8BaseTool
c306450c   _ZTISt9type_info
c3064514   ti_sdo_ipc_interfaces_IMessageQTransport_Interface__BASE__C
c3064518   _ZTS6STEADY
c3064528   ti_sdo_utils_MultiProc_nameList__A
c3064530   ti_sysbios_knl_Idle_funcList__C
c3064538   ti_sysbios_knl_Task_hooks__C
c3064540   xdc_runtime_Startup_firstFxns__A
c3064548   xdc_runtime_Startup_firstFxns__C
c3064550   xdc_runtime_Startup_lastFxns__C
c3064558   _ZTS5EQUAL
c3064560   _ZTS5Pulse
c3064568   _ZTS5Scada
c3064570   _ZTS4NAND
c3064578   _ZTS4Varm
c3064580   _ZTS4XNOR
c3064588   _ZTS3AND
c3064590   _ZTS3NOT
c3064598   _ZTS3XOR
c30645a0   _ZTS2FA
c30645a4   ti_sdo_ipc_interfaces_INotifyDriver_Interface__BASE__C
c30645a8   _ZTS2OR
c30645ac   ti_sdo_ipc_notifyDrivers_NotifyDriverShm_Object__heap__C
c30645b4   ti_sdo_ipc_nsremote_NameServerRemoteNotify_Instance_State_semMultiBlock__O
c30645b8   ti_sdo_ipc_nsremote_NameServerRemoteNotify_Instance_State_semRemoteWait__O
c30645bc   ti_sdo_ipc_nsremote_NameServerRemoteNotify_Instance_State_swiObj__O
c30645c0   ti_sdo_ipc_nsremote_NameServerRemoteNotify_notifyEventId__C
c30645c4   ti_sdo_ipc_nsremote_NameServerRemoteNotify_timeout__C
c30645c8   ti_sdo_ipc_transports_TransportShmSetup_priority__C
c30645cc   ti_sdo_ipc_transports_TransportShm_Instance_State_swiObj__O
c30645d0   ti_sdo_utils_INameServerRemote_Interface__BASE__C
c30645d4   ti_sdo_utils_MultiProc_nameList__C
c30645d8   ti_sdo_utils_NameServer_E_entryExists__C
c30645dc   ti_sdo_utils_NameServer_E_maxReached__C
c30645e0   ti_sdo_utils_NameServer_Instance_State_freeList__O
c30645e4   ti_sdo_utils_NameServer_Instance_State_nameList__O
c30645e8   ti_sdo_utils_NameServer_Object__count__C
c30645ec   ti_sysbios_BIOS_installedErrorHook__C
c30645f0   ti_sysbios_family_c62_TaskSupport_stackAlignment__C
c30645f4   ti_sysbios_family_c64p_Cache_EMIFA_BASE__C
c30645f8   ti_sysbios_family_c64p_Cache_EMIFA_CFG__C
c30645fc   ti_sysbios_family_c64p_Cache_EMIFA_LENGTH__C
c3064600   ti_sysbios_family_c64p_Cache_EMIFB_BASE__C
c3064604   ti_sysbios_family_c64p_Cache_EMIFB_CFG__C
c3064608   ti_sysbios_family_c64p_Cache_EMIFB_LENGTH__C
c306460c   ti_sysbios_family_c64p_Cache_EMIFC_BASE__C
c3064610   ti_sysbios_family_c64p_Cache_EMIFC_CFG__C
c3064614   ti_sysbios_family_c64p_Cache_EMIFC_LENGTH__C
c3064618   ti_sysbios_family_c64p_Cache_MAR0_31__C
c306461c   ti_sysbios_family_c64p_Cache_MAR128_159__C
c3064620   ti_sysbios_family_c64p_Cache_MAR160_191__C
c3064624   ti_sysbios_family_c64p_Cache_MAR192_223__C
c3064628   ti_sysbios_family_c64p_Cache_MAR224_255__C
c306462c   ti_sysbios_family_c64p_Cache_MAR32_63__C
c3064630   ti_sysbios_family_c64p_Cache_MAR64_95__C
c3064634   ti_sysbios_family_c64p_Cache_MAR96_127__C
c3064638   ti_sysbios_family_c64p_Exception_E_exceptionMin__C
c306463c   ti_sysbios_family_c64p_Exception_exceptionHook__C
c3064640   ti_sysbios_family_c64p_Exception_externalHook__C
c3064644   ti_sysbios_family_c64p_Exception_internalHook__C
c3064648   ti_sysbios_family_c64p_Exception_nmiHook__C
c306464c   ti_sysbios_family_c64p_Hwi_E_alreadyDefined__C
c3064650   ti_sysbios_gates_GateMutexPri_Instance_State_pendQ__O
c3064654   ti_sysbios_gates_GateMutex_Instance_State_sem__O
c3064658   ti_sysbios_hal_Hwi_E_stackOverflow__C
c306465c   ti_sysbios_heaps_HeapMem_E_memory__C
c3064660   ti_sysbios_heaps_HeapMem_Module__gateObj__C
c3064664   ti_sysbios_heaps_HeapMem_Object__count__C
c3064668   ti_sysbios_heaps_HeapMem_reqAlignMask__C
c306466c   ti_sysbios_heaps_HeapMem_reqAlign__C
c3064670   ti_sysbios_knl_Clock_Module_State_clockQ__O
c3064674   ti_sysbios_knl_Clock_tickMode__C
c3064678   ti_sysbios_knl_Clock_tickSource__C
c306467c   ti_sysbios_knl_Semaphore_Instance_State_pendQ__O
c3064680   ti_sysbios_knl_Idle_funcList__A
c3064684   ti_sysbios_knl_Swi_Object__count__C
c3064688   ti_sysbios_knl_Task_E_spOutOfBounds__C
c306468c   ti_sysbios_knl_Task_E_stackOverflow__C
c3064690   ti_sysbios_knl_Task_Module_State_inactiveQ__O
c3064694   ti_sysbios_knl_Task_Module_State_terminatedQ__O
c3064698   ti_sysbios_knl_Task_Object__count__C
c306469c   ti_sysbios_knl_Task_Object__heap__C
c30646a0   ti_sysbios_knl_Task_allBlockedFunc__C
c30646a4   ti_sysbios_knl_Task_defaultStackHeap__C
c30646a8   ti_sysbios_knl_Task_defaultStackSize__C
c30646ac   ti_sysbios_knl_Task_numConstructedTasks__C
c30646b0   ti_sysbios_timers_timer64_Timer_E_cannotSupport__C
c30646b4   ti_sysbios_timers_timer64_Timer_E_invalidTimer__C
c30646b8   ti_sysbios_timers_timer64_Timer_E_notAvailable__C
c30646bc   ti_sysbios_timers_timer64_Timer_anyMask__C
c30646c0   ti_sysbios_timers_timer64_Timer_defaultHalf__C
c30646c4   ti_sysbios_timers_timer64_Timer_freqDivisor__C
c30646c8   ti_sysbios_timers_timer64_Timer_numLocalTimers__C
c30646cc   ti_sysbios_timers_timer64_Timer_numTimerDevices__C
c30646d0   ti_sysbios_xdcruntime_GateThreadSupport_Instance_State_gate__O
c30646d4   xdc_runtime_Assert_E_assertFailed__C
c30646d8   xdc_runtime_Core_A_initializedParams__C
c30646dc   xdc_runtime_Core_Module__diagsEnabled__C
c30646e0   xdc_runtime_Core_Module__diagsIncluded__C
c30646e4   xdc_runtime_Core_Module__diagsMask__C
c30646e8   xdc_runtime_Diags_dictBase__C
c30646ec   xdc_runtime_Error_E_generic__C
c30646f0   xdc_runtime_Error_E_memory__C
c30646f4   xdc_runtime_Error_Module__diagsEnabled__C
c30646f8   xdc_runtime_Error_Module__diagsIncluded__C
c30646fc   xdc_runtime_Error_Module__diagsMask__C
c3064700   xdc_runtime_Error_Module__loggerFxn8__C
c3064704   xdc_runtime_Error_Module__loggerObj__C
c3064708   xdc_runtime_Error_policy__C
c306470c   xdc_runtime_Error_raiseHook__C
c3064710   xdc_runtime_IFilterLogger_Interface__BASE__C
c3064714   xdc_runtime_IGateProvider_Interface__BASE__C
c3064718   xdc_runtime_IHeap_Interface__BASE__C
c306471c   xdc_runtime_ILogger_Interface__BASE__C
c3064720   xdc_runtime_IModule_Interface__BASE__C
c3064724   xdc_runtime_Log_L_error__C
c3064728   xdc_runtime_LoggerBuf_E_badLevel__C
c306472c   xdc_runtime_LoggerBuf_Module__gateObj__C
c3064730   xdc_runtime_LoggerBuf_Object__count__C
c3064734   xdc_runtime_LoggerBuf_statusLogger__C
c3064738   xdc_runtime_Main_Module__diagsEnabled__C
c306473c   xdc_runtime_Main_Module__diagsIncluded__C
c3064740   xdc_runtime_Main_Module__diagsMask__C
c3064744   xdc_runtime_Main_Module__loggerFxn1__C
c3064748   xdc_runtime_Main_Module__loggerFxn2__C
c306474c   xdc_runtime_Main_Module__loggerFxn4__C
c3064750   xdc_runtime_Main_Module__loggerObj__C
c3064754   xdc_runtime_Memory_defaultHeapInstance__C
c3064758   xdc_runtime_Registry_Module__diagsMask__C
c306475c   xdc_runtime_Startup_execImpl__C
c3064760   xdc_runtime_Startup_lastFxns__A
c3064764   xdc_runtime_Startup_maxPasses__C
c3064768   xdc_runtime_Startup_sfxnRts__C
c306476c   xdc_runtime_Startup_sfxnTab__C
c3064770   xdc_runtime_SysMin_bufSize__C
c3064774   xdc_runtime_SysMin_outputFunc__C
c3064778   xdc_runtime_System_Module__gateObj__C
c306477c   xdc_runtime_System_extendFxn__C
c3064780   xdc_runtime_System_maxAtexitHandlers__C
c3064784   xdc_runtime_Text_charTab__C
c3064788   xdc_runtime_Text_nameEmpty__C
c306478c   xdc_runtime_Text_nameStatic__C
c3064790   xdc_runtime_Text_nameUnknown__C
c3064794   xdc_runtime_Text_nodeTab__C
c3064798   xdc_runtime_Text_visitRopeFxn__C
c306479c   ti_sdo_ipc_GateMP_Module__id__C
c30647a0   ti_sdo_ipc_Ipc_generateSlaveDataForHost__C
c30647a4   ti_sdo_ipc_ListMP_Module__id__C
c30647a8   ti_sdo_ipc_Notify_numLines__C
c30647ac   ti_sdo_ipc_SharedRegion_numEntries__C
c30647b0   ti_sdo_ipc_SharedRegion_translate__C
c30647b4   ti_sdo_ipc_family_da830_NotifySetup_useSecondLine__C
c30647b8   ti_sdo_ipc_gates_GatePeterson_Module__id__C
c30647bc   ti_sdo_ipc_heaps_HeapMemMP_Module__id__C
c30647c0   ti_sdo_ipc_nsremote_NameServerRemoteNotify_Module__id__C
c30647c4   ti_sdo_ipc_transports_TransportShm_Module__id__C
c30647c8   ti_sdo_ipc_transports_TransportShm_notifyEventId__C
c30647cc   ti_sdo_utils_MultiProc_numProcessors__C
c30647d0   ti_sdo_utils_MultiProc_numProcsInCluster__C
c30647d4   ti_sdo_utils_NameServer_Module__id__C
c30647d8   ti_sysbios_family_c64p_Exception_Module__id__C
c30647dc   ti_sysbios_family_c64p_Hwi_Module__id__C
c30647e0   ti_sysbios_hal_Hwi_Module__id__C
c30647e4   ti_sysbios_heaps_HeapMem_Module__id__C
c30647e8   ti_sysbios_knl_Task_Module__id__C
c30647ec   ti_sysbios_knl_Task_deleteTerminatedTasks__C
c30647f0   ti_sysbios_knl_Task_initStackFlag__C
c30647f4   ti_sysbios_timers_timer64_Timer_Module__id__C
c30647f8   ti_sysbios_timers_timer64_Timer_startupNeeded__C
c30647fc   xdc_runtime_Core_Module__id__C
c3064800   xdc_runtime_Diags_setMaskEnabled__C
c3064804   xdc_runtime_Error_Module__loggerDefined__C
c3064808   xdc_runtime_Error_maxDepth__C
c306480c   xdc_runtime_LoggerBuf_Module__id__C
c3064810   xdc_runtime_LoggerBuf_filterByLevel__C
c3064814   xdc_runtime_Main_Module__id__C
c3064818   xdc_runtime_Main_Module__loggerDefined__C
c306481c   xdc_runtime_Memory_Module__id__C
c3064820   xdc_runtime_SysMin_flushAtExit__C
c3064824   xdc_runtime_Text_charCnt__C
c3064828   xdc_runtime_Text_isLoaded__C
c306482c   xdc_runtime_Text_registryModsLastId__C
c3064830   xdc_runtime_Text_unnamedModsLastId__C
c3064838   _stack
c3065838   __TI_STACK_END
c30659ec   __CIOBUF_
c3065b10   HwiTimerHandle
c3065b10   __TI_STATIC_BASE
c3065b14   DynamictimerHandle
c3065b18   Null0TimeHandle
c3065b1c   Null1TimeHandle
c3065b20   ClockHandle1
c3065b24   sem
c3065b28   SwiFftHandle
c3065b2c   clockList
c3065b30   obj1
c3065b34   HwiHandle
c3065b38   GpioB0Int0Handle
c3065b40   time1
c3065b48   time2
c3065b50   time3
c3065b58   HzCkType
c3065b5c   DiffVol
c3065b60   DiffPhase
c3065b64   g_task
c3065b68   __dso_handle
c3065b6c   varm_sem
c3065b70   exit_flag
c3065b78   lpnum
c3065b7a   lpst
c3065b7c   checkmd
c3065b7e   he
c3065b7f   fen
c3065b80   UL
c3065b84   UR
c3065b88   IMAX
c3065b8c   UMAX
c3065b90   Uzero
c3065b94   IrtFlag
c3065b96   led
c3065b98   Hwienable
c3065b9a   enbIR
c3065b9c   yxnum
c3065b9e   yxdata
c3065ba0   Syslink_terminateEventId
c3065ba4   Syslink_terminateEventLineId
c3065ba8   TIMEOUT
c3065bac   linenum
c3065bad   secnum
c3065bae   protype
c3065bb0   fftnum
c3065bb4   ptr_w64
c3065bb8   ptr_w16
c3065bc0   Logtab_asm
c3065c00   ti_sysbios_family_c64p_Hwi0
c3065c20   ti_sysbios_family_c64p_Hwi1
c3065c40   ti_sysbios_family_c64p_Hwi2
c3065c60   ti_sysbios_family_c64p_Hwi3
c3065c80   ti_sysbios_family_c64p_Hwi4
c3065ca0   ti_sysbios_family_c64p_Hwi5
c3065cc0   ti_sysbios_family_c64p_Hwi6
c3065ce0   ti_sysbios_family_c64p_Hwi7
c3065d00   ti_sysbios_family_c64p_Hwi8
c3065d20   ti_sysbios_family_c64p_Hwi9
c3065d40   ti_sysbios_family_c64p_Hwi10
c3065d60   ti_sysbios_family_c64p_Hwi11
c3065d80   ti_sysbios_family_c64p_Hwi12
c3065da0   ti_sysbios_family_c64p_Hwi13
c3065dc0   ti_sysbios_family_c64p_Hwi14
c3065de0   ti_sysbios_family_c64p_Hwi15
c3065e00   exp_ctable
c3065e24   __c_args__
c3065e88   __TI_INITARRAY_Base
c3065eb0   __TI_INITARRAY_Limit
c3066000   _Ipc_ResetVector
c3066008   Ipc_sr0MemorySetup
ffffffff   __TI_pprof_out_hndl
ffffffff   __TI_prof_data_size
ffffffff   __TI_prof_data_start
ffffffff   __binit__
ffffffff   binit

[3305 symbols]


DYNAMIC SYMBOLS: SORTED ALPHABETICALLY BY Name 

address    name
--------   ----
UNDEFED    
c305fc68   TSK_idle
c3066000   _Ipc_ResetVector
c3065e88   __TI_INITARRAY_Base
c3065eb0   __TI_INITARRAY_Limit
c3065838   __TI_STACK_END
00001000   __TI_STACK_SIZE
c3065b10   __TI_STATIC_BASE
ffffffff   __TI_pprof_out_hndl
ffffffff   __TI_prof_data_size
ffffffff   __TI_prof_data_start
ffffffff   __binit__
c3065e24   __c_args__
00000064   _argsize
ffffffff   binit
00000001   xdc_runtime_Startup__EXECFXN__C
00000001   xdc_runtime_Startup__RESETFXN__C

[17 symbols]


IMPORTED and EXPORTED SYMBOLS: SORTED ALPHABETICALLY BY Name 

IMPORTED SYMBOLS

name                           size      Imported from
-----------------------------  --------  -------------

[0 symbols]


EXPORTED SYMBOLS

address    name
--------   ----
c3066000   _Ipc_ResetVector
